(lp1
S'/imatge/mtubau/projects/faces/Speech2Youtubers/youtubers_v2_test/alexpuertolas/preprocessed_frame_10266.wav'
p2
aS'/imatge/mtubau/projects/faces/Speech2Youtubers/youtubers_v2_test/alexpuertolas/preprocessed_frame_4263.wav'
p3
aS'/imatge/mtubau/projects/faces/Speech2Youtubers/youtubers_v2_test/alexpuertolas/preprocessed_frame_10179.wav'
p4
aS'/imatge/mtubau/projects/faces/Speech2Youtubers/youtubers_v2_test/alexpuertolas/preprocessed_frame_7700.wav'
p5
aS'/imatge/mtubau/projects/faces/Speech2Youtubers/youtubers_v2_test/alexpuertolas/preprocessed_frame_5133.wav'
p6
aS'/imatge/mtubau/projects/faces/Speech2Youtubers/youtubers_v2_test/alexpuertolas/preprocessed_frame_8816.wav'
p7
aS'/imatge/mtubau/projects/faces/Speech2Youtubers/youtubers_v2_test/alexpuertolas/preprocessed_frame_4118.wav'
p8
aS'/imatge/mtubau/projects/faces/Speech2Youtubers/youtubers_v2_test/alexpuertolas/preprocessed_frame_1500.wav'
p9
aS'/imatge/mtubau/projects/faces/Speech2Youtubers/youtubers_v2_test/alexpuertolas/preprocessed_frame_8033.wav'
p10
aS'/imatge/mtubau/projects/faces/Speech2Youtubers/youtubers_v2_test/alexpuertolas/preprocessed_frame_6050.wav'
p11
aS'/imatge/mtubau/projects/faces/Speech2Youtubers/youtubers_v2_test/alexpuertolas/preprocessed_frame_9164.wav'
p12
aS'/imatge/mtubau/projects/faces/Speech2Youtubers/youtubers_v2_test/alexpuertolas/preprocessed_frame_2697.wav'
p13
aS'/imatge/mtubau/projects/faces/Speech2Youtubers/youtubers_v2_test/alexpuertolas/preprocessed_frame_7300.wav'
p14
aS'/imatge/mtubau/projects/faces/Speech2Youtubers/youtubers_v2_test/alexpuertolas/preprocessed_frame_1682.wav'
p15
aS'/imatge/mtubau/projects/faces/Speech2Youtubers/youtubers_v2_test/alexpuertolas/preprocessed_frame_3190.wav'
p16
aS'/imatge/mtubau/projects/faces/Speech2Youtubers/youtubers_v2_test/alexpuertolas/preprocessed_frame_7975.wav'
p17
aS'/imatge/mtubau/projects/faces/Speech2Youtubers/youtubers_v2_test/alexpuertolas/preprocessed_frame_5700.wav'
p18
aS'/imatge/mtubau/projects/faces/Speech2Youtubers/youtubers_v2_test/alexpuertolas/preprocessed_frame_3175.wav'
p19
aS'/imatge/mtubau/projects/faces/Speech2Youtubers/youtubers_v2_test/alexpuertolas/preprocessed_frame_3567.wav'
p20
aS'/imatge/mtubau/projects/faces/Speech2Youtubers/youtubers_v2_test/alexpuertolas/preprocessed_frame_9250.wav'
p21
aS'/imatge/mtubau/projects/faces/Speech2Youtubers/youtubers_v2_test/alexpuertolas/preprocessed_frame_7200.wav'
p22
aS'/imatge/mtubau/projects/faces/Speech2Youtubers/youtubers_v2_test/alexpuertolas/preprocessed_frame_1856.wav'
p23
aS'/imatge/mtubau/projects/faces/Speech2Youtubers/youtubers_v2_test/alexpuertolas/preprocessed_frame_9575.wav'
p24
aS'/imatge/mtubau/projects/faces/Speech2Youtubers/youtubers_v2_test/alexpuertolas/preprocessed_frame_1624.wav'
p25
aS'/imatge/mtubau/projects/faces/Speech2Youtubers/youtubers_v2_test/alexpuertolas/preprocessed_frame_3712.wav'
p26
aS'/imatge/mtubau/projects/faces/Speech2Youtubers/youtubers_v2_test/alexpuertolas/preprocessed_frame_650.wav'
p27
aS'/imatge/mtubau/projects/faces/Speech2Youtubers/youtubers_v2_test/alexpuertolas/preprocessed_frame_10075.wav'
p28
aS'/imatge/mtubau/projects/faces/Speech2Youtubers/youtubers_v2_test/alexpuertolas/preprocessed_frame_3950.wav'
p29
aS'/imatge/mtubau/projects/faces/Speech2Youtubers/youtubers_v2_test/alexpuertolas/preprocessed_frame_3741.wav'
p30
aS'/imatge/mtubau/projects/faces/Speech2Youtubers/youtubers_v2_test/alexpuertolas/preprocessed_frame_1508.wav'
p31
aS'/imatge/mtubau/projects/faces/Speech2Youtubers/youtubers_v2_test/alexpuertolas/preprocessed_frame_7425.wav'
p32
aS'/imatge/mtubau/projects/faces/Speech2Youtubers/youtubers_v2_test/alexpuertolas/preprocessed_frame_2350.wav'
p33
aS'/imatge/mtubau/projects/faces/Speech2Youtubers/youtubers_v2_test/alexpuertolas/preprocessed_frame_8925.wav'
p34
aS'/imatge/mtubau/projects/faces/Speech2Youtubers/youtubers_v2_test/alexpuertolas/preprocessed_frame_675.wav'
p35
aS'/imatge/mtubau/projects/faces/Speech2Youtubers/youtubers_v2_test/alexpuertolas/preprocessed_frame_2475.wav'
p36
aS'/imatge/mtubau/projects/faces/Speech2Youtubers/youtubers_v2_test/alexpuertolas/preprocessed_frame_2575.wav'
p37
aS'/imatge/mtubau/projects/faces/Speech2Youtubers/youtubers_v2_test/alexpuertolas/preprocessed_frame_7100.wav'
p38
aS'/imatge/mtubau/projects/faces/Speech2Youtubers/youtubers_v2_test/alexpuertolas/preprocessed_frame_7859.wav'
p39
aS'/imatge/mtubau/projects/faces/Speech2Youtubers/youtubers_v2_test/alexpuertolas/preprocessed_frame_10411.wav'
p40
aS'/imatge/mtubau/projects/faces/Speech2Youtubers/youtubers_v2_test/alexpuertolas/preprocessed_frame_8900.wav'
p41
aS'/imatge/mtubau/projects/faces/Speech2Youtubers/youtubers_v2_test/alexpuertolas/preprocessed_frame_4495.wav'
p42
aS'/imatge/mtubau/projects/faces/Speech2Youtubers/youtubers_v2_test/alexpuertolas/preprocessed_frame_5249.wav'
p43
aS'/imatge/mtubau/projects/faces/Speech2Youtubers/youtubers_v2_test/alexpuertolas/preprocessed_frame_4582.wav'
p44
aS'/imatge/mtubau/projects/faces/Speech2Youtubers/youtubers_v2_test/alexpuertolas/preprocessed_frame_2300.wav'
p45
aS'/imatge/mtubau/projects/faces/Speech2Youtubers/youtubers_v2_test/alexpuertolas/preprocessed_frame_8062.wav'
p46
aS'/imatge/mtubau/projects/faces/Speech2Youtubers/youtubers_v2_test/alexpuertolas/preprocessed_frame_1300.wav'
p47
aS'/imatge/mtubau/projects/faces/Speech2Youtubers/youtubers_v2_test/alexpuertolas/preprocessed_frame_2425.wav'
p48
aS'/imatge/mtubau/projects/faces/Speech2Youtubers/youtubers_v2_test/alexpuertolas/preprocessed_frame_3975.wav'
p49
aS'/imatge/mtubau/projects/faces/Speech2Youtubers/youtubers_v2_test/alexpuertolas/preprocessed_frame_625.wav'
p50
aS'/imatge/mtubau/projects/faces/Speech2Youtubers/youtubers_v2_test/alexpuertolas/preprocessed_frame_9525.wav'
p51
aS'/imatge/mtubau/projects/faces/Speech2Youtubers/youtubers_v2_test/alexpuertolas/preprocessed_frame_6699.wav'
p52
aS'/imatge/mtubau/projects/faces/Speech2Youtubers/youtubers_v2_test/alexpuertolas/preprocessed_frame_3125.wav'
p53
aS'/imatge/mtubau/projects/faces/Speech2Youtubers/youtubers_v2_test/alexpuertolas/preprocessed_frame_6575.wav'
p54
aS'/imatge/mtubau/projects/faces/Speech2Youtubers/youtubers_v2_test/alexpuertolas/preprocessed_frame_5742.wav'
p55
aS'/imatge/mtubau/projects/faces/Speech2Youtubers/youtubers_v2_test/javiermuniz/preprocessed_frame_7076.wav'
p56
aS'/imatge/mtubau/projects/faces/Speech2Youtubers/youtubers_v2_test/javiermuniz/preprocessed_frame_1325.wav'
p57
aS'/imatge/mtubau/projects/faces/Speech2Youtubers/youtubers_v2_test/javiermuniz/preprocessed_frame_5600.wav'
p58
aS'/imatge/mtubau/projects/faces/Speech2Youtubers/youtubers_v2_test/javiermuniz/preprocessed_frame_5046.wav'
p59
aS'/imatge/mtubau/projects/faces/Speech2Youtubers/youtubers_v2_test/javiermuniz/preprocessed_frame_1625.wav'
p60
aS'/imatge/mtubau/projects/faces/Speech2Youtubers/youtubers_v2_test/javiermuniz/preprocessed_frame_350.wav'
p61
aS'/imatge/mtubau/projects/faces/Speech2Youtubers/youtubers_v2_test/javiermuniz/preprocessed_frame_725.wav'
p62
aS'/imatge/mtubau/projects/faces/Speech2Youtubers/youtubers_v2_test/javiermuniz/preprocessed_frame_3250.wav'
p63
aS'/imatge/mtubau/projects/faces/Speech2Youtubers/youtubers_v2_test/javiermuniz/preprocessed_frame_450.wav'
p64
aS'/imatge/mtubau/projects/faces/Speech2Youtubers/youtubers_v2_test/javiermuniz/preprocessed_frame_1750.wav'
p65
aS'/imatge/mtubau/projects/faces/Speech2Youtubers/youtubers_v2_test/javiermuniz/preprocessed_frame_580.wav'
p66
aS'/imatge/mtubau/projects/faces/Speech2Youtubers/youtubers_v2_test/javiermuniz/preprocessed_frame_6467.wav'
p67
aS'/imatge/mtubau/projects/faces/Speech2Youtubers/youtubers_v2_test/javiermuniz/preprocessed_frame_6420.wav'
p68
aS'/imatge/mtubau/projects/faces/Speech2Youtubers/youtubers_v2_test/javiermuniz/preprocessed_frame_1470.wav'
p69
aS'/imatge/mtubau/projects/faces/Speech2Youtubers/youtubers_v2_test/javiermuniz/preprocessed_frame_2813.wav'
p70
aS'/imatge/mtubau/projects/faces/Speech2Youtubers/youtubers_v2_test/javiermuniz/preprocessed_frame_5975.wav'
p71
aS'/imatge/mtubau/projects/faces/Speech2Youtubers/youtubers_v2_test/javiermuniz/preprocessed_frame_5925.wav'
p72
aS'/imatge/mtubau/projects/faces/Speech2Youtubers/youtubers_v2_test/javiermuniz/preprocessed_frame_975.wav'
p73
aS'/imatge/mtubau/projects/faces/Speech2Youtubers/youtubers_v2_test/javiermuniz/preprocessed_frame_5275.wav'
p74
aS'/imatge/mtubau/projects/faces/Speech2Youtubers/youtubers_v2_test/javiermuniz/preprocessed_frame_2160.wav'
p75
aS'/imatge/mtubau/projects/faces/Speech2Youtubers/youtubers_v2_test/javiermuniz/preprocessed_frame_6225.wav'
p76
aS'/imatge/mtubau/projects/faces/Speech2Youtubers/youtubers_v2_test/javiermuniz/preprocessed_frame_4553.wav'
p77
aS'/imatge/mtubau/projects/faces/Speech2Youtubers/youtubers_v2_test/javiermuniz/preprocessed_frame_899.wav'
p78
aS'/imatge/mtubau/projects/faces/Speech2Youtubers/youtubers_v2_test/javiermuniz/preprocessed_frame_6400.wav'
p79
aS'/imatge/mtubau/projects/faces/Speech2Youtubers/youtubers_v2_test/javiermuniz/preprocessed_frame_3360.wav'
p80
aS'/imatge/mtubau/projects/faces/Speech2Youtubers/youtubers_v2_test/javiermuniz/preprocessed_frame_1410.wav'
p81
aS'/imatge/mtubau/projects/faces/Speech2Youtubers/youtubers_v2_test/javiermuniz/preprocessed_frame_4110.wav'
p82
aS'/imatge/mtubau/projects/faces/Speech2Youtubers/youtubers_v2_test/javiermuniz/preprocessed_frame_5225.wav'
p83
aS'/imatge/mtubau/projects/faces/Speech2Youtubers/youtubers_v2_test/javiermuniz/preprocessed_frame_7018.wav'
p84
aS'/imatge/mtubau/projects/faces/Speech2Youtubers/youtubers_v2_test/javiermuniz/preprocessed_frame_3775.wav'
p85
aS'/imatge/mtubau/projects/faces/Speech2Youtubers/youtubers_v2_test/javiermuniz/preprocessed_frame_7075.wav'
p86
aS'/imatge/mtubau/projects/faces/Speech2Youtubers/youtubers_v2_test/javiermuniz/preprocessed_frame_6000.wav'
p87
aS'/imatge/mtubau/projects/faces/Speech2Youtubers/youtubers_v2_test/javiermuniz/preprocessed_frame_4860.wav'
p88
aS'/imatge/mtubau/projects/faces/Speech2Youtubers/youtubers_v2_test/javiermuniz/preprocessed_frame_2349.wav'
p89
aS'/imatge/mtubau/projects/faces/Speech2Youtubers/youtubers_v2_test/javiermuniz/preprocessed_frame_1600.wav'
p90
aS'/imatge/mtubau/projects/faces/Speech2Youtubers/youtubers_v2_test/javiermuniz/preprocessed_frame_4175.wav'
p91
aS'/imatge/mtubau/projects/faces/Speech2Youtubers/youtubers_v2_test/javiermuniz/preprocessed_frame_4234.wav'
p92
aS'/imatge/mtubau/projects/faces/Speech2Youtubers/youtubers_v2_test/javiermuniz/preprocessed_frame_3100.wav'
p93
aS'/imatge/mtubau/projects/faces/Speech2Youtubers/youtubers_v2_test/javiermuniz/preprocessed_frame_1972.wav'
p94
aS'/imatge/mtubau/projects/faces/Speech2Youtubers/youtubers_v2_test/javiermuniz/preprocessed_frame_6775.wav'
p95
aS'/imatge/mtubau/projects/faces/Speech2Youtubers/youtubers_v2_test/javiermuniz/preprocessed_frame_2750.wav'
p96
aS'/imatge/mtubau/projects/faces/Speech2Youtubers/youtubers_v2_test/javiermuniz/preprocessed_frame_2784.wav'
p97
aS'/imatge/mtubau/projects/faces/Speech2Youtubers/youtubers_v2_test/javiermuniz/preprocessed_frame_5858.wav'
p98
aS'/imatge/mtubau/projects/faces/Speech2Youtubers/youtubers_v2_test/javiermuniz/preprocessed_frame_1530.wav'
p99
aS'/imatge/mtubau/projects/faces/Speech2Youtubers/youtubers_v2_test/javiermuniz/preprocessed_frame_1682.wav'
p100
aS'/imatge/mtubau/projects/faces/Speech2Youtubers/youtubers_v2_test/javiermuniz/preprocessed_frame_5825.wav'
p101
aS'/imatge/mtubau/projects/faces/Speech2Youtubers/youtubers_v2_test/javiermuniz/preprocessed_frame_2030.wav'
p102
aS'/imatge/mtubau/projects/faces/Speech2Youtubers/youtubers_v2_test/javiermuniz/preprocessed_frame_2233.wav'
p103
aS'/imatge/mtubau/projects/faces/Speech2Youtubers/youtubers_v2_test/javiermuniz/preprocessed_frame_2775.wav'
p104
aS'/imatge/mtubau/projects/faces/Speech2Youtubers/youtubers_v2_test/auronplay/preprocessed_frame_20039.wav'
p105
aS'/imatge/mtubau/projects/faces/Speech2Youtubers/youtubers_v2_test/auronplay/preprocessed_frame_575.wav'
p106
aS'/imatge/mtubau/projects/faces/Speech2Youtubers/youtubers_v2_test/auronplay/preprocessed_frame_20619.wav'
p107
aS'/imatge/mtubau/projects/faces/Speech2Youtubers/youtubers_v2_test/auronplay/preprocessed_frame_20851.wav'
p108
aS'/imatge/mtubau/projects/faces/Speech2Youtubers/youtubers_v2_test/auronplay/preprocessed_frame_18270.wav'
p109
aS'/imatge/mtubau/projects/faces/Speech2Youtubers/youtubers_v2_test/auronplay/preprocessed_frame_4437.wav'
p110
aS'/imatge/mtubau/projects/faces/Speech2Youtubers/youtubers_v2_test/auronplay/preprocessed_frame_4756.wav'
p111
aS'/imatge/mtubau/projects/faces/Speech2Youtubers/youtubers_v2_test/auronplay/preprocessed_frame_19981.wav'
p112
aS'/imatge/mtubau/projects/faces/Speech2Youtubers/youtubers_v2_test/auronplay/preprocessed_frame_3690.wav'
p113
aS'/imatge/mtubau/projects/faces/Speech2Youtubers/youtubers_v2_test/auronplay/preprocessed_frame_1073.wav'
p114
aS'/imatge/mtubau/projects/faces/Speech2Youtubers/youtubers_v2_test/auronplay/preprocessed_frame_7656.wav'
p115
aS'/imatge/mtubau/projects/faces/Speech2Youtubers/youtubers_v2_test/auronplay/preprocessed_frame_1225.wav'
p116
aS'/imatge/mtubau/projects/faces/Speech2Youtubers/youtubers_v2_test/auronplay/preprocessed_frame_14007.wav'
p117
aS'/imatge/mtubau/projects/faces/Speech2Youtubers/youtubers_v2_test/auronplay/preprocessed_frame_18908.wav'
p118
aS'/imatge/mtubau/projects/faces/Speech2Youtubers/youtubers_v2_test/auronplay/preprocessed_frame_20909.wav'
p119
aS'/imatge/mtubau/projects/faces/Speech2Youtubers/youtubers_v2_test/auronplay/preprocessed_frame_16153.wav'
p120
aS'/imatge/mtubau/projects/faces/Speech2Youtubers/youtubers_v2_test/auronplay/preprocessed_frame_11165.wav'
p121
aS'/imatge/mtubau/projects/faces/Speech2Youtubers/youtubers_v2_test/auronplay/preprocessed_frame_3250.wav'
p122
aS'/imatge/mtubau/projects/faces/Speech2Youtubers/youtubers_v2_test/auronplay/preprocessed_frame_1537.wav'
p123
aS'/imatge/mtubau/projects/faces/Speech2Youtubers/youtubers_v2_test/auronplay/preprocessed_frame_11049.wav'
p124
aS'/imatge/mtubau/projects/faces/Speech2Youtubers/youtubers_v2_test/auronplay/preprocessed_frame_2088.wav'
p125
aS'/imatge/mtubau/projects/faces/Speech2Youtubers/youtubers_v2_test/auronplay/preprocessed_frame_1350.wav'
p126
aS'/imatge/mtubau/projects/faces/Speech2Youtubers/youtubers_v2_test/auronplay/preprocessed_frame_17893.wav'
p127
aS'/imatge/mtubau/projects/faces/Speech2Youtubers/youtubers_v2_test/auronplay/preprocessed_frame_2987.wav'
p128
aS'/imatge/mtubau/projects/faces/Speech2Youtubers/youtubers_v2_test/auronplay/preprocessed_frame_1825.wav'
p129
aS'/imatge/mtubau/projects/faces/Speech2Youtubers/youtubers_v2_test/auronplay/preprocessed_frame_6148.wav'
p130
aS'/imatge/mtubau/projects/faces/Speech2Youtubers/youtubers_v2_test/auronplay/preprocessed_frame_6554.wav'
p131
aS'/imatge/mtubau/projects/faces/Speech2Youtubers/youtubers_v2_test/auronplay/preprocessed_frame_20400.wav'
p132
aS'/imatge/mtubau/projects/faces/Speech2Youtubers/youtubers_v2_test/auronplay/preprocessed_frame_2250.wav'
p133
aS'/imatge/mtubau/projects/faces/Speech2Youtubers/youtubers_v2_test/auronplay/preprocessed_frame_464.wav'
p134
aS'/imatge/mtubau/projects/faces/Speech2Youtubers/youtubers_v2_test/auronplay/preprocessed_frame_2375.wav'
p135
aS'/imatge/mtubau/projects/faces/Speech2Youtubers/youtubers_v2_test/auronplay/preprocessed_frame_2600.wav'
p136
aS'/imatge/mtubau/projects/faces/Speech2Youtubers/youtubers_v2_test/auronplay/preprocessed_frame_9599.wav'
p137
aS'/imatge/mtubau/projects/faces/Speech2Youtubers/youtubers_v2_test/auronplay/preprocessed_frame_2525.wav'
p138
aS'/imatge/mtubau/projects/faces/Speech2Youtubers/youtubers_v2_test/auronplay/preprocessed_frame_14152.wav'
p139
aS'/imatge/mtubau/projects/faces/Speech2Youtubers/youtubers_v2_test/auronplay/preprocessed_frame_20764.wav'
p140
aS'/imatge/mtubau/projects/faces/Speech2Youtubers/youtubers_v2_test/auronplay/preprocessed_frame_14732.wav'
p141
aS'/imatge/mtubau/projects/faces/Speech2Youtubers/youtubers_v2_test/auronplay/preprocessed_frame_8070.wav'
p142
aS'/imatge/mtubau/projects/faces/Speech2Youtubers/youtubers_v2_test/auronplay/preprocessed_frame_20938.wav'
p143
aS'/imatge/mtubau/projects/faces/Speech2Youtubers/youtubers_v2_test/auronplay/preprocessed_frame_1885.wav'
p144
aS'/imatge/mtubau/projects/faces/Speech2Youtubers/youtubers_v2_test/auronplay/preprocessed_frame_15399.wav'
p145
aS'/imatge/mtubau/projects/faces/Speech2Youtubers/youtubers_v2_test/auronplay/preprocessed_frame_14094.wav'
p146
aS'/imatge/mtubau/projects/faces/Speech2Youtubers/youtubers_v2_test/auronplay/preprocessed_frame_4872.wav'
p147
aS'/imatge/mtubau/projects/faces/Speech2Youtubers/youtubers_v2_test/auronplay/preprocessed_frame_3270.wav'
p148
aS'/imatge/mtubau/projects/faces/Speech2Youtubers/youtubers_v2_test/jaimealtozano/preprocessed_frame_16150.wav'
p149
aS'/imatge/mtubau/projects/faces/Speech2Youtubers/youtubers_v2_test/jaimealtozano/preprocessed_frame_9650.wav'
p150
aS'/imatge/mtubau/projects/faces/Speech2Youtubers/youtubers_v2_test/jaimealtozano/preprocessed_frame_11025.wav'
p151
aS'/imatge/mtubau/projects/faces/Speech2Youtubers/youtubers_v2_test/jaimealtozano/preprocessed_frame_2275.wav'
p152
aS'/imatge/mtubau/projects/faces/Speech2Youtubers/youtubers_v2_test/jaimealtozano/preprocessed_frame_15100.wav'
p153
aS'/imatge/mtubau/projects/faces/Speech2Youtubers/youtubers_v2_test/jaimealtozano/preprocessed_frame_11475.wav'
p154
aS'/imatge/mtubau/projects/faces/Speech2Youtubers/youtubers_v2_test/jaimealtozano/preprocessed_frame_14850.wav'
p155
aS'/imatge/mtubau/projects/faces/Speech2Youtubers/youtubers_v2_test/jaimealtozano/preprocessed_frame_7975.wav'
p156
aS'/imatge/mtubau/projects/faces/Speech2Youtubers/youtubers_v2_test/jaimealtozano/preprocessed_frame_8200.wav'
p157
aS'/imatge/mtubau/projects/faces/Speech2Youtubers/youtubers_v2_test/jaimealtozano/preprocessed_frame_13750.wav'
p158
aS'/imatge/mtubau/projects/faces/Speech2Youtubers/youtubers_v2_test/jaimealtozano/preprocessed_frame_2250.wav'
p159
aS'/imatge/mtubau/projects/faces/Speech2Youtubers/youtubers_v2_test/jaimealtozano/preprocessed_frame_2500.wav'
p160
aS'/imatge/mtubau/projects/faces/Speech2Youtubers/youtubers_v2_test/jaimealtozano/preprocessed_frame_3625.wav'
p161
aS'/imatge/mtubau/projects/faces/Speech2Youtubers/youtubers_v2_test/jaimealtozano/preprocessed_frame_575.wav'
p162
aS'/imatge/mtubau/projects/faces/Speech2Youtubers/youtubers_v2_test/jaimealtozano/preprocessed_frame_4300.wav'
p163
aS'/imatge/mtubau/projects/faces/Speech2Youtubers/youtubers_v2_test/jaimealtozano/preprocessed_frame_9000.wav'
p164
aS'/imatge/mtubau/projects/faces/Speech2Youtubers/youtubers_v2_test/jaimealtozano/preprocessed_frame_6500.wav'
p165
aS'/imatge/mtubau/projects/faces/Speech2Youtubers/youtubers_v2_test/jaimealtozano/preprocessed_frame_6775.wav'
p166
aS'/imatge/mtubau/projects/faces/Speech2Youtubers/youtubers_v2_test/jaimealtozano/preprocessed_frame_2900.wav'
p167
aS'/imatge/mtubau/projects/faces/Speech2Youtubers/youtubers_v2_test/jaimealtozano/preprocessed_frame_10800.wav'
p168
aS'/imatge/mtubau/projects/faces/Speech2Youtubers/youtubers_v2_test/jaimealtozano/preprocessed_frame_10350.wav'
p169
aS'/imatge/mtubau/projects/faces/Speech2Youtubers/youtubers_v2_test/jaimealtozano/preprocessed_frame_8350.wav'
p170
aS'/imatge/mtubau/projects/faces/Speech2Youtubers/youtubers_v2_test/jaimealtozano/preprocessed_frame_7700.wav'
p171
aS'/imatge/mtubau/projects/faces/Speech2Youtubers/youtubers_v2_test/jaimealtozano/preprocessed_frame_3500.wav'
p172
aS'/imatge/mtubau/projects/faces/Speech2Youtubers/youtubers_v2_test/jaimealtozano/preprocessed_frame_1750.wav'
p173
aS'/imatge/mtubau/projects/faces/Speech2Youtubers/youtubers_v2_test/jaimealtozano/preprocessed_frame_800.wav'
p174
aS'/imatge/mtubau/projects/faces/Speech2Youtubers/youtubers_v2_test/jaimealtozano/preprocessed_frame_15000.wav'
p175
aS'/imatge/mtubau/projects/faces/Speech2Youtubers/youtubers_v2_test/jaimealtozano/preprocessed_frame_5300.wav'
p176
aS'/imatge/mtubau/projects/faces/Speech2Youtubers/youtubers_v2_test/jaimealtozano/preprocessed_frame_15650.wav'
p177
aS'/imatge/mtubau/projects/faces/Speech2Youtubers/youtubers_v2_test/jaimealtozano/preprocessed_frame_1650.wav'
p178
aS'/imatge/mtubau/projects/faces/Speech2Youtubers/youtubers_v2_test/jaimealtozano/preprocessed_frame_5675.wav'
p179
aS'/imatge/mtubau/projects/faces/Speech2Youtubers/youtubers_v2_test/jaimealtozano/preprocessed_frame_6175.wav'
p180
aS'/imatge/mtubau/projects/faces/Speech2Youtubers/youtubers_v2_test/jaimealtozano/preprocessed_frame_5900.wav'
p181
aS'/imatge/mtubau/projects/faces/Speech2Youtubers/youtubers_v2_test/jaimealtozano/preprocessed_frame_6000.wav'
p182
aS'/imatge/mtubau/projects/faces/Speech2Youtubers/youtubers_v2_test/jaimealtozano/preprocessed_frame_3400.wav'
p183
aS'/imatge/mtubau/projects/faces/Speech2Youtubers/youtubers_v2_test/jaimealtozano/preprocessed_frame_15800.wav'
p184
aS'/imatge/mtubau/projects/faces/Speech2Youtubers/youtubers_v2_test/jaimealtozano/preprocessed_frame_15300.wav'
p185
aS'/imatge/mtubau/projects/faces/Speech2Youtubers/youtubers_v2_test/jaimealtozano/preprocessed_frame_9625.wav'
p186
aS'/imatge/mtubau/projects/faces/Speech2Youtubers/youtubers_v2_test/jaimealtozano/preprocessed_frame_5175.wav'
p187
aS'/imatge/mtubau/projects/faces/Speech2Youtubers/youtubers_v2_test/jaimealtozano/preprocessed_frame_14375.wav'
p188
aS'/imatge/mtubau/projects/faces/Speech2Youtubers/youtubers_v2_test/luzuvlogs/preprocessed_frame_8550.wav'
p189
aS'/imatge/mtubau/projects/faces/Speech2Youtubers/youtubers_v2_test/luzuvlogs/preprocessed_frame_2820.wav'
p190
aS'/imatge/mtubau/projects/faces/Speech2Youtubers/youtubers_v2_test/luzuvlogs/preprocessed_frame_10150.wav'
p191
aS'/imatge/mtubau/projects/faces/Speech2Youtubers/youtubers_v2_test/luzuvlogs/preprocessed_frame_6450.wav'
p192
aS'/imatge/mtubau/projects/faces/Speech2Youtubers/youtubers_v2_test/luzuvlogs/preprocessed_frame_510.wav'
p193
aS'/imatge/mtubau/projects/faces/Speech2Youtubers/youtubers_v2_test/luzuvlogs/preprocessed_frame_7714.wav'
p194
aS'/imatge/mtubau/projects/faces/Speech2Youtubers/youtubers_v2_test/luzuvlogs/preprocessed_frame_5310.wav'
p195
aS'/imatge/mtubau/projects/faces/Speech2Youtubers/youtubers_v2_test/luzuvlogs/preprocessed_frame_6390.wav'
p196
aS'/imatge/mtubau/projects/faces/Speech2Youtubers/youtubers_v2_test/luzuvlogs/preprocessed_frame_11970.wav'
p197
aS'/imatge/mtubau/projects/faces/Speech2Youtubers/youtubers_v2_test/luzuvlogs/preprocessed_frame_6612.wav'
p198
aS'/imatge/mtubau/projects/faces/Speech2Youtubers/youtubers_v2_test/luzuvlogs/preprocessed_frame_8520.wav'
p199
aS'/imatge/mtubau/projects/faces/Speech2Youtubers/youtubers_v2_test/luzuvlogs/preprocessed_frame_1537.wav'
p200
aS'/imatge/mtubau/projects/faces/Speech2Youtubers/youtubers_v2_test/luzuvlogs/preprocessed_frame_1218.wav'
p201
aS'/imatge/mtubau/projects/faces/Speech2Youtubers/youtubers_v2_test/luzuvlogs/preprocessed_frame_4680.wav'
p202
aS'/imatge/mtubau/projects/faces/Speech2Youtubers/youtubers_v2_test/luzuvlogs/preprocessed_frame_15480.wav'
p203
aS'/imatge/mtubau/projects/faces/Speech2Youtubers/youtubers_v2_test/luzuvlogs/preprocessed_frame_6120.wav'
p204
aS'/imatge/mtubau/projects/faces/Speech2Youtubers/youtubers_v2_test/luzuvlogs/preprocessed_frame_10266.wav'
p205
aS'/imatge/mtubau/projects/faces/Speech2Youtubers/youtubers_v2_test/luzuvlogs/preprocessed_frame_4800.wav'
p206
aS'/imatge/mtubau/projects/faces/Speech2Youtubers/youtubers_v2_test/luzuvlogs/preprocessed_frame_8220.wav'
p207
aS'/imatge/mtubau/projects/faces/Speech2Youtubers/youtubers_v2_test/luzuvlogs/preprocessed_frame_13290.wav'
p208
aS'/imatge/mtubau/projects/faces/Speech2Youtubers/youtubers_v2_test/luzuvlogs/preprocessed_frame_12270.wav'
p209
aS'/imatge/mtubau/projects/faces/Speech2Youtubers/youtubers_v2_test/luzuvlogs/preprocessed_frame_16650.wav'
p210
aS'/imatge/mtubau/projects/faces/Speech2Youtubers/youtubers_v2_test/luzuvlogs/preprocessed_frame_13830.wav'
p211
aS'/imatge/mtubau/projects/faces/Speech2Youtubers/youtubers_v2_test/luzuvlogs/preprocessed_frame_13514.wav'
p212
aS'/imatge/mtubau/projects/faces/Speech2Youtubers/youtubers_v2_test/luzuvlogs/preprocessed_frame_12064.wav'
p213
aS'/imatge/mtubau/projects/faces/Speech2Youtubers/youtubers_v2_test/luzuvlogs/preprocessed_frame_5700.wav'
p214
aS'/imatge/mtubau/projects/faces/Speech2Youtubers/youtubers_v2_test/luzuvlogs/preprocessed_frame_5460.wav'
p215
aS'/imatge/mtubau/projects/faces/Speech2Youtubers/youtubers_v2_test/luzuvlogs/preprocessed_frame_10740.wav'
p216
aS'/imatge/mtubau/projects/faces/Speech2Youtubers/youtubers_v2_test/luzuvlogs/preprocessed_frame_1680.wav'
p217
aS'/imatge/mtubau/projects/faces/Speech2Youtubers/youtubers_v2_test/luzuvlogs/preprocessed_frame_14400.wav'
p218
aS'/imatge/mtubau/projects/faces/Speech2Youtubers/youtubers_v2_test/luzuvlogs/preprocessed_frame_14500.wav'
p219
aS'/imatge/mtubau/projects/faces/Speech2Youtubers/youtubers_v2_test/luzuvlogs/preprocessed_frame_14587.wav'
p220
aS'/imatge/mtubau/projects/faces/Speech2Youtubers/youtubers_v2_test/luzuvlogs/preprocessed_frame_16124.wav'
p221
aS'/imatge/mtubau/projects/faces/Speech2Youtubers/youtubers_v2_test/luzuvlogs/preprocessed_frame_1566.wav'
p222
aS'/imatge/mtubau/projects/faces/Speech2Youtubers/youtubers_v2_test/luzuvlogs/preprocessed_frame_2760.wav'
p223
aS'/imatge/mtubau/projects/faces/Speech2Youtubers/youtubers_v2_test/luzuvlogs/preprocessed_frame_3870.wav'
p224
aS'/imatge/mtubau/projects/faces/Speech2Youtubers/youtubers_v2_test/mely/preprocessed_frame_7424.wav'
p225
aS'/imatge/mtubau/projects/faces/Speech2Youtubers/youtubers_v2_test/mely/preprocessed_frame_2668.wav'
p226
aS'/imatge/mtubau/projects/faces/Speech2Youtubers/youtubers_v2_test/mely/preprocessed_frame_5100.wav'
p227
aS'/imatge/mtubau/projects/faces/Speech2Youtubers/youtubers_v2_test/mely/preprocessed_frame_11165.wav'
p228
aS'/imatge/mtubau/projects/faces/Speech2Youtubers/youtubers_v2_test/mely/preprocessed_frame_12209.wav'
p229
aS'/imatge/mtubau/projects/faces/Speech2Youtubers/youtubers_v2_test/mely/preprocessed_frame_5655.wav'
p230
aS'/imatge/mtubau/projects/faces/Speech2Youtubers/youtubers_v2_test/mely/preprocessed_frame_6409.wav'
p231
aS'/imatge/mtubau/projects/faces/Speech2Youtubers/youtubers_v2_test/mely/preprocessed_frame_6275.wav'
p232
aS'/imatge/mtubau/projects/faces/Speech2Youtubers/youtubers_v2_test/mely/preprocessed_frame_5350.wav'
p233
aS'/imatge/mtubau/projects/faces/Speech2Youtubers/youtubers_v2_test/mely/preprocessed_frame_9800.wav'
p234
aS'/imatge/mtubau/projects/faces/Speech2Youtubers/youtubers_v2_test/mely/preprocessed_frame_1425.wav'
p235
aS'/imatge/mtubau/projects/faces/Speech2Youtubers/youtubers_v2_test/mely/preprocessed_frame_6351.wav'
p236
aS'/imatge/mtubau/projects/faces/Speech2Youtubers/youtubers_v2_test/mely/preprocessed_frame_10991.wav'
p237
aS'/imatge/mtubau/projects/faces/Speech2Youtubers/youtubers_v2_test/mely/preprocessed_frame_8700.wav'
p238
aS'/imatge/mtubau/projects/faces/Speech2Youtubers/youtubers_v2_test/mely/preprocessed_frame_11571.wav'
p239
aS'/imatge/mtubau/projects/faces/Speech2Youtubers/youtubers_v2_test/mely/preprocessed_frame_6757.wav'
p240
aS'/imatge/mtubau/projects/faces/Speech2Youtubers/youtubers_v2_test/mely/preprocessed_frame_4089.wav'
p241
aS'/imatge/mtubau/projects/faces/Speech2Youtubers/youtubers_v2_test/mely/preprocessed_frame_11020.wav'
p242
aS'/imatge/mtubau/projects/faces/Speech2Youtubers/youtubers_v2_test/mely/preprocessed_frame_8468.wav'
p243
aS'/imatge/mtubau/projects/faces/Speech2Youtubers/youtubers_v2_test/mely/preprocessed_frame_4925.wav'
p244
aS'/imatge/mtubau/projects/faces/Speech2Youtubers/youtubers_v2_test/mely/preprocessed_frame_5725.wav'
p245
aS'/imatge/mtubau/projects/faces/Speech2Youtubers/youtubers_v2_test/mely/preprocessed_frame_10295.wav'
p246
aS'/imatge/mtubau/projects/faces/Speech2Youtubers/youtubers_v2_test/mely/preprocessed_frame_899.wav'
p247
aS'/imatge/mtubau/projects/faces/Speech2Youtubers/youtubers_v2_test/mely/preprocessed_frame_11500.wav'
p248
aS'/imatge/mtubau/projects/faces/Speech2Youtubers/youtubers_v2_test/mely/preprocessed_frame_4575.wav'
p249
aS'/imatge/mtubau/projects/faces/Speech2Youtubers/youtubers_v2_test/mely/preprocessed_frame_9106.wav'
p250
aS'/imatge/mtubau/projects/faces/Speech2Youtubers/youtubers_v2_test/mely/preprocessed_frame_11832.wav'
p251
aS'/imatge/mtubau/projects/faces/Speech2Youtubers/youtubers_v2_test/mely/preprocessed_frame_8642.wav'
p252
aS'/imatge/mtubau/projects/faces/Speech2Youtubers/youtubers_v2_test/mely/preprocessed_frame_1350.wav'
p253
aS'/imatge/mtubau/projects/faces/Speech2Youtubers/youtubers_v2_test/mely/preprocessed_frame_1275.wav'
p254
aS'/imatge/mtubau/projects/faces/Speech2Youtubers/youtubers_v2_test/mely/preprocessed_frame_4611.wav'
p255
aS'/imatge/mtubau/projects/faces/Speech2Youtubers/youtubers_v2_test/mely/preprocessed_frame_2436.wav'
p256
aS'/imatge/mtubau/projects/faces/Speech2Youtubers/youtubers_v2_test/focusingvlogs/preprocessed_frame_5100.wav'
p257
aS'/imatge/mtubau/projects/faces/Speech2Youtubers/youtubers_v2_test/focusingvlogs/preprocessed_frame_450.wav'
p258
aS'/imatge/mtubau/projects/faces/Speech2Youtubers/youtubers_v2_test/focusingvlogs/preprocessed_frame_6675.wav'
p259
aS'/imatge/mtubau/projects/faces/Speech2Youtubers/youtubers_v2_test/focusingvlogs/preprocessed_frame_7800.wav'
p260
aS'/imatge/mtubau/projects/faces/Speech2Youtubers/youtubers_v2_test/focusingvlogs/preprocessed_frame_9075.wav'
p261
aS'/imatge/mtubau/projects/faces/Speech2Youtubers/youtubers_v2_test/focusingvlogs/preprocessed_frame_7700.wav'
p262
aS'/imatge/mtubau/projects/faces/Speech2Youtubers/youtubers_v2_test/focusingvlogs/preprocessed_frame_20175.wav'
p263
aS'/imatge/mtubau/projects/faces/Speech2Youtubers/youtubers_v2_test/focusingvlogs/preprocessed_frame_6875.wav'
p264
aS'/imatge/mtubau/projects/faces/Speech2Youtubers/youtubers_v2_test/focusingvlogs/preprocessed_frame_1175.wav'
p265
aS'/imatge/mtubau/projects/faces/Speech2Youtubers/youtubers_v2_test/focusingvlogs/preprocessed_frame_11975.wav'
p266
aS'/imatge/mtubau/projects/faces/Speech2Youtubers/youtubers_v2_test/focusingvlogs/preprocessed_frame_2625.wav'
p267
aS'/imatge/mtubau/projects/faces/Speech2Youtubers/youtubers_v2_test/focusingvlogs/preprocessed_frame_17650.wav'
p268
aS'/imatge/mtubau/projects/faces/Speech2Youtubers/youtubers_v2_test/focusingvlogs/preprocessed_frame_20700.wav'
p269
aS'/imatge/mtubau/projects/faces/Speech2Youtubers/youtubers_v2_test/focusingvlogs/preprocessed_frame_11700.wav'
p270
aS'/imatge/mtubau/projects/faces/Speech2Youtubers/youtubers_v2_test/focusingvlogs/preprocessed_frame_13525.wav'
p271
aS'/imatge/mtubau/projects/faces/Speech2Youtubers/youtubers_v2_test/focusingvlogs/preprocessed_frame_16775.wav'
p272
aS'/imatge/mtubau/projects/faces/Speech2Youtubers/youtubers_v2_test/focusingvlogs/preprocessed_frame_12925.wav'
p273
aS'/imatge/mtubau/projects/faces/Speech2Youtubers/youtubers_v2_test/focusingvlogs/preprocessed_frame_6075.wav'
p274
aS'/imatge/mtubau/projects/faces/Speech2Youtubers/youtubers_v2_test/focusingvlogs/preprocessed_frame_5625.wav'
p275
aS'/imatge/mtubau/projects/faces/Speech2Youtubers/youtubers_v2_test/focusingvlogs/preprocessed_frame_1200.wav'
p276
aS'/imatge/mtubau/projects/faces/Speech2Youtubers/youtubers_v2_test/focusingvlogs/preprocessed_frame_12475.wav'
p277
aS'/imatge/mtubau/projects/faces/Speech2Youtubers/youtubers_v2_test/focusingvlogs/preprocessed_frame_8675.wav'
p278
aS'/imatge/mtubau/projects/faces/Speech2Youtubers/youtubers_v2_test/focusingvlogs/preprocessed_frame_10800.wav'
p279
aS'/imatge/mtubau/projects/faces/Speech2Youtubers/youtubers_v2_test/focusingvlogs/preprocessed_frame_9800.wav'
p280
aS'/imatge/mtubau/projects/faces/Speech2Youtubers/youtubers_v2_test/focusingvlogs/preprocessed_frame_4600.wav'
p281
aS'/imatge/mtubau/projects/faces/Speech2Youtubers/youtubers_v2_test/focusingvlogs/preprocessed_frame_2775.wav'
p282
aS'/imatge/mtubau/projects/faces/Speech2Youtubers/youtubers_v2_test/focusingvlogs/preprocessed_frame_18275.wav'
p283
aS'/imatge/mtubau/projects/faces/Speech2Youtubers/youtubers_v2_test/focusingvlogs/preprocessed_frame_5650.wav'
p284
aS'/imatge/mtubau/projects/faces/Speech2Youtubers/youtubers_v2_test/focusingvlogs/preprocessed_frame_12950.wav'
p285
aS'/imatge/mtubau/projects/faces/Speech2Youtubers/youtubers_v2_test/amigosdelaquimica/preprocessed_frame_4770.wav'
p286
aS'/imatge/mtubau/projects/faces/Speech2Youtubers/youtubers_v2_test/amigosdelaquimica/preprocessed_frame_9870.wav'
p287
aS'/imatge/mtubau/projects/faces/Speech2Youtubers/youtubers_v2_test/amigosdelaquimica/preprocessed_frame_5750.wav'
p288
aS'/imatge/mtubau/projects/faces/Speech2Youtubers/youtubers_v2_test/amigosdelaquimica/preprocessed_frame_14325.wav'
p289
aS'/imatge/mtubau/projects/faces/Speech2Youtubers/youtubers_v2_test/amigosdelaquimica/preprocessed_frame_1825.wav'
p290
aS'/imatge/mtubau/projects/faces/Speech2Youtubers/youtubers_v2_test/amigosdelaquimica/preprocessed_frame_17040.wav'
p291
aS'/imatge/mtubau/projects/faces/Speech2Youtubers/youtubers_v2_test/amigosdelaquimica/preprocessed_frame_20774.wav'
p292
aS'/imatge/mtubau/projects/faces/Speech2Youtubers/youtubers_v2_test/amigosdelaquimica/preprocessed_frame_2275.wav'
p293
aS'/imatge/mtubau/projects/faces/Speech2Youtubers/youtubers_v2_test/amigosdelaquimica/preprocessed_frame_20960.wav'
p294
aS'/imatge/mtubau/projects/faces/Speech2Youtubers/youtubers_v2_test/amigosdelaquimica/preprocessed_frame_3990.wav'
p295
aS'/imatge/mtubau/projects/faces/Speech2Youtubers/youtubers_v2_test/amigosdelaquimica/preprocessed_frame_6550.wav'
p296
aS'/imatge/mtubau/projects/faces/Speech2Youtubers/youtubers_v2_test/amigosdelaquimica/preprocessed_frame_11950.wav'
p297
aS'/imatge/mtubau/projects/faces/Speech2Youtubers/youtubers_v2_test/amigosdelaquimica/preprocessed_frame_12390.wav'
p298
aS'/imatge/mtubau/projects/faces/Speech2Youtubers/youtubers_v2_test/amigosdelaquimica/preprocessed_frame_5125.wav'
p299
aS'/imatge/mtubau/projects/faces/Speech2Youtubers/youtubers_v2_test/amigosdelaquimica/preprocessed_frame_10375.wav'
p300
aS'/imatge/mtubau/projects/faces/Speech2Youtubers/youtubers_v2_test/amigosdelaquimica/preprocessed_frame_1368.wav'
p301
aS'/imatge/mtubau/projects/faces/Speech2Youtubers/youtubers_v2_test/amigosdelaquimica/preprocessed_frame_5650.wav'
p302
aS'/imatge/mtubau/projects/faces/Speech2Youtubers/youtubers_v2_test/amigosdelaquimica/preprocessed_frame_690.wav'
p303
aS'/imatge/mtubau/projects/faces/Speech2Youtubers/youtubers_v2_test/amigosdelaquimica/preprocessed_frame_5100.wav'
p304
aS'/imatge/mtubau/projects/faces/Speech2Youtubers/youtubers_v2_test/amigosdelaquimica/preprocessed_frame_20531.wav'
p305
aS'/imatge/mtubau/projects/faces/Speech2Youtubers/youtubers_v2_test/amigosdelaquimica/preprocessed_frame_2725.wav'
p306
aS'/imatge/mtubau/projects/faces/Speech2Youtubers/youtubers_v2_test/amigosdelaquimica/preprocessed_frame_408.wav'
p307
aS'/imatge/mtubau/projects/faces/Speech2Youtubers/youtubers_v2_test/amigosdelaquimica/preprocessed_frame_4450.wav'
p308
aS'/imatge/mtubau/projects/faces/Speech2Youtubers/youtubers_v2_test/amigosdelaquimica/preprocessed_frame_13140.wav'
p309
aS'/imatge/mtubau/projects/faces/Speech2Youtubers/youtubers_v2_test/amigosdelaquimica/preprocessed_frame_1392.wav'
p310
aS'/imatge/mtubau/projects/faces/Speech2Youtubers/youtubers_v2_test/amigosdelaquimica/preprocessed_frame_10600.wav'
p311
aS'/imatge/mtubau/projects/faces/Speech2Youtubers/youtubers_v2_test/soyunapringada/preprocessed_frame_18050.wav'
p312
aS'/imatge/mtubau/projects/faces/Speech2Youtubers/youtubers_v2_test/soyunapringada/preprocessed_frame_11975.wav'
p313
aS'/imatge/mtubau/projects/faces/Speech2Youtubers/youtubers_v2_test/soyunapringada/preprocessed_frame_9225.wav'
p314
aS'/imatge/mtubau/projects/faces/Speech2Youtubers/youtubers_v2_test/soyunapringada/preprocessed_frame_24200.wav'
p315
aS'/imatge/mtubau/projects/faces/Speech2Youtubers/youtubers_v2_test/soyunapringada/preprocessed_frame_8275.wav'
p316
aS'/imatge/mtubau/projects/faces/Speech2Youtubers/youtubers_v2_test/soyunapringada/preprocessed_frame_18325.wav'
p317
aS'/imatge/mtubau/projects/faces/Speech2Youtubers/youtubers_v2_test/soyunapringada/preprocessed_frame_22975.wav'
p318
aS'/imatge/mtubau/projects/faces/Speech2Youtubers/youtubers_v2_test/soyunapringada/preprocessed_frame_2675.wav'
p319
aS'/imatge/mtubau/projects/faces/Speech2Youtubers/youtubers_v2_test/soyunapringada/preprocessed_frame_26000.wav'
p320
aS'/imatge/mtubau/projects/faces/Speech2Youtubers/youtubers_v2_test/soyunapringada/preprocessed_frame_8725.wav'
p321
aS'/imatge/mtubau/projects/faces/Speech2Youtubers/youtubers_v2_test/soyunapringada/preprocessed_frame_1200.wav'
p322
aS'/imatge/mtubau/projects/faces/Speech2Youtubers/youtubers_v2_test/soyunapringada/preprocessed_frame_5550.wav'
p323
aS'/imatge/mtubau/projects/faces/Speech2Youtubers/youtubers_v2_test/soyunapringada/preprocessed_frame_26225.wav'
p324
aS'/imatge/mtubau/projects/faces/Speech2Youtubers/youtubers_v2_test/soyunapringada/preprocessed_frame_15800.wav'
p325
aS'/imatge/mtubau/projects/faces/Speech2Youtubers/youtubers_v2_test/soyunapringada/preprocessed_frame_8225.wav'
p326
aS'/imatge/mtubau/projects/faces/Speech2Youtubers/youtubers_v2_test/soyunapringada/preprocessed_frame_1800.wav'
p327
aS'/imatge/mtubau/projects/faces/Speech2Youtubers/youtubers_v2_test/soyunapringada/preprocessed_frame_23125.wav'
p328
aS'/imatge/mtubau/projects/faces/Speech2Youtubers/youtubers_v2_test/soyunapringada/preprocessed_frame_7200.wav'
p329
aS'/imatge/mtubau/projects/faces/Speech2Youtubers/youtubers_v2_test/soyunapringada/preprocessed_frame_22950.wav'
p330
aS'/imatge/mtubau/projects/faces/Speech2Youtubers/youtubers_v2_test/soyunapringada/preprocessed_frame_25975.wav'
p331
aS'/imatge/mtubau/projects/faces/Speech2Youtubers/youtubers_v2_test/soyunapringada/preprocessed_frame_25175.wav'
p332
aS'/imatge/mtubau/projects/faces/Speech2Youtubers/youtubers_v2_test/soyunapringada/preprocessed_frame_6900.wav'
p333
aS'/imatge/mtubau/projects/faces/Speech2Youtubers/youtubers_v2_test/soyunapringada/preprocessed_frame_25075.wav'
p334
aS'/imatge/mtubau/projects/faces/Speech2Youtubers/youtubers_v2_test/ter/preprocessed_frame_5597.wav'
p335
aS'/imatge/mtubau/projects/faces/Speech2Youtubers/youtubers_v2_test/ter/preprocessed_frame_4775.wav'
p336
aS'/imatge/mtubau/projects/faces/Speech2Youtubers/youtubers_v2_test/ter/preprocessed_frame_2975.wav'
p337
aS'/imatge/mtubau/projects/faces/Speech2Youtubers/youtubers_v2_test/ter/preprocessed_frame_9625.wav'
p338
aS'/imatge/mtubau/projects/faces/Speech2Youtubers/youtubers_v2_test/ter/preprocessed_frame_8250.wav'
p339
aS'/imatge/mtubau/projects/faces/Speech2Youtubers/youtubers_v2_test/ter/preprocessed_frame_11200.wav'
p340
aS'/imatge/mtubau/projects/faces/Speech2Youtubers/youtubers_v2_test/ter/preprocessed_frame_7888.wav'
p341
aS'/imatge/mtubau/projects/faces/Speech2Youtubers/youtubers_v2_test/ter/preprocessed_frame_3712.wav'
p342
aS'/imatge/mtubau/projects/faces/Speech2Youtubers/youtubers_v2_test/ter/preprocessed_frame_8091.wav'
p343
aS'/imatge/mtubau/projects/faces/Speech2Youtubers/youtubers_v2_test/ter/preprocessed_frame_9575.wav'
p344
aS'/imatge/mtubau/projects/faces/Speech2Youtubers/youtubers_v2_test/ter/preprocessed_frame_10614.wav'
p345
aS'/imatge/mtubau/projects/faces/Speech2Youtubers/youtubers_v2_test/ter/preprocessed_frame_9825.wav'
p346
aS'/imatge/mtubau/projects/faces/Speech2Youtubers/youtubers_v2_test/ter/preprocessed_frame_6873.wav'
p347
aS'/imatge/mtubau/projects/faces/Speech2Youtubers/youtubers_v2_test/ter/preprocessed_frame_7830.wav'
p348
aS'/imatge/mtubau/projects/faces/Speech2Youtubers/youtubers_v2_test/ter/preprocessed_frame_3925.wav'
p349
aS'/imatge/mtubau/projects/faces/Speech2Youtubers/youtubers_v2_test/ter/preprocessed_frame_5655.wav'
p350
aS'/imatge/mtubau/projects/faces/Speech2Youtubers/youtubers_v2_test/ter/preprocessed_frame_1650.wav'
p351
aS'/imatge/mtubau/projects/faces/Speech2Youtubers/youtubers_v2_test/ter/preprocessed_frame_11525.wav'
p352
aS'/imatge/mtubau/projects/faces/Speech2Youtubers/youtubers_v2_test/ter/preprocessed_frame_3900.wav'
p353
aS'/imatge/mtubau/projects/faces/Speech2Youtubers/youtubers_v2_test/ter/preprocessed_frame_11513.wav'
p354
aS'/imatge/mtubau/projects/faces/Speech2Youtubers/youtubers_v2_test/ter/preprocessed_frame_1700.wav'
p355
a.