(lp1
S'/imatge/mtubau/work/2Male_dataset_test/auronplay/preprocessed_frame_2697.wav'
p2
aS'/imatge/mtubau/work/2Male_dataset_test/auronplay/preprocessed_frame_1508.wav'
p3
aS'/imatge/mtubau/work/2Male_dataset_test/auronplay/preprocessed_frame_1015.wav'
p4
aS'/imatge/mtubau/work/2Male_dataset_test/auronplay/preprocessed_frame_2639.wav'
p5
aS'/imatge/mtubau/work/2Male_dataset_test/auronplay/preprocessed_frame_261.wav'
p6
aS'/imatge/mtubau/work/2Male_dataset_test/auronplay/preprocessed_frame_1769.wav'
p7
aS'/imatge/mtubau/work/2Male_dataset_test/auronplay/preprocessed_frame_2842.wav'
p8
aS'/imatge/mtubau/work/2Male_dataset_test/auronplay/preprocessed_frame_1421.wav'
p9
aS'/imatge/mtubau/work/2Male_dataset_test/auronplay/preprocessed_frame_1885.wav'
p10
aS'/imatge/mtubau/work/2Male_dataset_test/auronplay/preprocessed_frame_1160.wav'
p11
aS'/imatge/mtubau/work/2Male_dataset_test/auronplay/preprocessed_frame_2262.wav'
p12
aS'/imatge/mtubau/work/2Male_dataset_test/auronplay/preprocessed_frame_841.wav'
p13
aS'/imatge/mtubau/work/2Male_dataset_test/auronplay/preprocessed_frame_493.wav'
p14
aS'/imatge/mtubau/work/2Male_dataset_test/auronplay/preprocessed_frame_2726.wav'
p15
aS'/imatge/mtubau/work/2Male_dataset_test/auronplay/preprocessed_frame_1682.wav'
p16
aS'/imatge/mtubau/work/2Male_dataset_test/auronplay/preprocessed_frame_1131.wav'
p17
aS'/imatge/mtubau/work/2Male_dataset_test/auronplay/preprocessed_frame_1624.wav'
p18
aS'/imatge/mtubau/work/2Male_dataset_test/auronplay/preprocessed_frame_2610.wav'
p19
aS'/imatge/mtubau/work/2Male_dataset_test/auronplay/preprocessed_frame_1305.wav'
p20
aS'/imatge/mtubau/work/2Male_dataset_test/auronplay/preprocessed_frame_2059.wav'
p21
aS'/imatge/mtubau/work/2Male_dataset_test/auronplay/preprocessed_frame_2320.wav'
p22
aS'/imatge/mtubau/work/2Male_dataset_test/auronplay/preprocessed_frame_1711.wav'
p23
aS'/imatge/mtubau/work/2Male_dataset_test/auronplay/preprocessed_frame_1740.wav'
p24
aS'/imatge/mtubau/work/2Male_dataset_test/auronplay/preprocessed_frame_319.wav'
p25
aS'/imatge/mtubau/work/2Male_dataset_test/auronplay/preprocessed_frame_2668.wav'
p26
aS'/imatge/mtubau/work/2Male_dataset_test/auronplay/preprocessed_frame_1189.wav'
p27
aS'/imatge/mtubau/work/2Male_dataset_test/auronplay/preprocessed_frame_1044.wav'
p28
aS'/imatge/mtubau/work/2Male_dataset_test/auronplay/preprocessed_frame_899.wav'
p29
aS'/imatge/mtubau/work/2Male_dataset_test/auronplay/preprocessed_frame_1102.wav'
p30
aS'/imatge/mtubau/work/2Male_dataset_test/auronplay/preprocessed_frame_1856.wav'
p31
aS'/imatge/mtubau/work/2Male_dataset_test/auronplay/preprocessed_frame_2233.wav'
p32
aS'/imatge/mtubau/work/2Male_dataset_test/auronplay/preprocessed_frame_2494.wav'
p33
aS'/imatge/mtubau/work/2Male_dataset_test/auronplay/preprocessed_frame_1392.wav'
p34
aS'/imatge/mtubau/work/2Male_dataset_test/auronplay/preprocessed_frame_957.wav'
p35
aS'/imatge/mtubau/work/2Male_dataset_test/auronplay/preprocessed_frame_2117.wav'
p36
aS'/imatge/mtubau/work/2Male_dataset_test/auronplay/preprocessed_frame_2349.wav'
p37
aS'/imatge/mtubau/work/2Male_dataset_test/auronplay/preprocessed_frame_1334.wav'
p38
aS'/imatge/mtubau/work/2Male_dataset_test/auronplay/preprocessed_frame_2378.wav'
p39
aS'/imatge/mtubau/work/2Male_dataset_test/auronplay/preprocessed_frame_2175.wav'
p40
aS'/imatge/mtubau/work/2Male_dataset_test/auronplay/preprocessed_frame_870.wav'
p41
aS'/imatge/mtubau/work/2Male_dataset_test/auronplay/preprocessed_frame_2146.wav'
p42
aS'/imatge/mtubau/work/2Male_dataset_test/auronplay/preprocessed_frame_2436.wav'
p43
aS'/imatge/mtubau/work/2Male_dataset_test/auronplay/preprocessed_frame_2465.wav'
p44
aS'/imatge/mtubau/work/2Male_dataset_test/auronplay/preprocessed_frame_1653.wav'
p45
aS'/imatge/mtubau/work/2Male_dataset_test/auronplay/preprocessed_frame_2001.wav'
p46
aS'/imatge/mtubau/work/2Male_dataset_test/luzuvlogs/preprocessed_frame_2392.wav'
p47
aS'/imatge/mtubau/work/2Male_dataset_test/luzuvlogs/preprocessed_frame_1679.wav'
p48
aS'/imatge/mtubau/work/2Male_dataset_test/luzuvlogs/preprocessed_frame_1932.wav'
p49
aS'/imatge/mtubau/work/2Male_dataset_test/luzuvlogs/preprocessed_frame_1725.wav'
p50
aS'/imatge/mtubau/work/2Male_dataset_test/luzuvlogs/preprocessed_frame_1978.wav'
p51
aS'/imatge/mtubau/work/2Male_dataset_test/luzuvlogs/preprocessed_frame_1817.wav'
p52
aS'/imatge/mtubau/work/2Male_dataset_test/luzuvlogs/preprocessed_frame_2162.wav'
p53
aS'/imatge/mtubau/work/2Male_dataset_test/luzuvlogs/preprocessed_frame_2369.wav'
p54
aS'/imatge/mtubau/work/2Male_dataset_test/luzuvlogs/preprocessed_frame_1380.wav'
p55
aS'/imatge/mtubau/work/2Male_dataset_test/luzuvlogs/preprocessed_frame_2139.wav'
p56
aS'/imatge/mtubau/work/2Male_dataset_test/luzuvlogs/preprocessed_frame_1357.wav'
p57
aS'/imatge/mtubau/work/2Male_dataset_test/luzuvlogs/preprocessed_frame_1633.wav'
p58
aS'/imatge/mtubau/work/2Male_dataset_test/luzuvlogs/preprocessed_frame_2323.wav'
p59
aS'/imatge/mtubau/work/2Male_dataset_test/luzuvlogs/preprocessed_frame_1610.wav'
p60
aS'/imatge/mtubau/work/2Male_dataset_test/luzuvlogs/preprocessed_frame_2070.wav'
p61
aS'/imatge/mtubau/work/2Male_dataset_test/luzuvlogs/preprocessed_frame_2231.wav'
p62
aS'/imatge/mtubau/work/2Male_dataset_test/luzuvlogs/preprocessed_frame_1794.wav'
p63
aS'/imatge/mtubau/work/2Male_dataset_test/luzuvlogs/preprocessed_frame_1587.wav'
p64
aS'/imatge/mtubau/work/2Male_dataset_test/luzuvlogs/preprocessed_frame_2461.wav'
p65
aS'/imatge/mtubau/work/2Male_dataset_test/luzuvlogs/preprocessed_frame_2047.wav'
p66
aS'/imatge/mtubau/work/2Male_dataset_test/luzuvlogs/preprocessed_frame_1909.wav'
p67
aS'/imatge/mtubau/work/2Male_dataset_test/luzuvlogs/preprocessed_frame_1886.wav'
p68
aS'/imatge/mtubau/work/2Male_dataset_test/luzuvlogs/preprocessed_frame_2024.wav'
p69
aS'/imatge/mtubau/work/2Male_dataset_test/luzuvlogs/preprocessed_frame_2346.wav'
p70
aS'/imatge/mtubau/work/2Male_dataset_test/luzuvlogs/preprocessed_frame_1518.wav'
p71
aS'/imatge/mtubau/work/2Male_dataset_test/luzuvlogs/preprocessed_frame_1955.wav'
p72
aS'/imatge/mtubau/work/2Male_dataset_test/luzuvlogs/preprocessed_frame_2438.wav'
p73
aS'/imatge/mtubau/work/2Male_dataset_test/luzuvlogs/preprocessed_frame_1426.wav'
p74
aS'/imatge/mtubau/work/2Male_dataset_test/luzuvlogs/preprocessed_frame_2300.wav'
p75
aS'/imatge/mtubau/work/2Male_dataset_test/luzuvlogs/preprocessed_frame_2001.wav'
p76
aS'/imatge/mtubau/work/2Male_dataset_test/luzuvlogs/preprocessed_frame_1863.wav'
p77
aS'/imatge/mtubau/work/2Male_dataset_test/luzuvlogs/preprocessed_frame_1840.wav'
p78
aS'/imatge/mtubau/work/2Male_dataset_test/luzuvlogs/preprocessed_frame_2093.wav'
p79
aS'/imatge/mtubau/work/2Male_dataset_test/luzuvlogs/preprocessed_frame_1702.wav'
p80
aS'/imatge/mtubau/work/2Male_dataset_test/luzuvlogs/preprocessed_frame_2116.wav'
p81
aS'/imatge/mtubau/work/2Male_dataset_test/luzuvlogs/preprocessed_frame_1449.wav'
p82
aS'/imatge/mtubau/work/2Male_dataset_test/luzuvlogs/preprocessed_frame_1541.wav'
p83
aS'/imatge/mtubau/work/2Male_dataset_test/luzuvlogs/preprocessed_frame_2415.wav'
p84
aS'/imatge/mtubau/work/2Male_dataset_test/luzuvlogs/preprocessed_frame_2208.wav'
p85
aS'/imatge/mtubau/work/2Male_dataset_test/luzuvlogs/preprocessed_frame_2277.wav'
p86
aS'/imatge/mtubau/work/2Male_dataset_test/luzuvlogs/preprocessed_frame_1771.wav'
p87
a.