(lp1
S'/imatge/mtubau/projects/faces/Speech2Youtubers/youtubers_v2_test/alexpuertolas/cropped_face_frame_10266.png'
p2
aS'/imatge/mtubau/projects/faces/Speech2Youtubers/youtubers_v2_test/alexpuertolas/cropped_face_frame_4263.png'
p3
aS'/imatge/mtubau/projects/faces/Speech2Youtubers/youtubers_v2_test/alexpuertolas/cropped_face_frame_10179.png'
p4
aS'/imatge/mtubau/projects/faces/Speech2Youtubers/youtubers_v2_test/alexpuertolas/cropped_face_frame_7700.png'
p5
aS'/imatge/mtubau/projects/faces/Speech2Youtubers/youtubers_v2_test/alexpuertolas/cropped_face_frame_5133.png'
p6
aS'/imatge/mtubau/projects/faces/Speech2Youtubers/youtubers_v2_test/alexpuertolas/cropped_face_frame_8816.png'
p7
aS'/imatge/mtubau/projects/faces/Speech2Youtubers/youtubers_v2_test/alexpuertolas/cropped_face_frame_4118.png'
p8
aS'/imatge/mtubau/projects/faces/Speech2Youtubers/youtubers_v2_test/alexpuertolas/cropped_face_frame_1500.png'
p9
aS'/imatge/mtubau/projects/faces/Speech2Youtubers/youtubers_v2_test/alexpuertolas/cropped_face_frame_8033.png'
p10
aS'/imatge/mtubau/projects/faces/Speech2Youtubers/youtubers_v2_test/alexpuertolas/cropped_face_frame_6050.png'
p11
aS'/imatge/mtubau/projects/faces/Speech2Youtubers/youtubers_v2_test/alexpuertolas/cropped_face_frame_9164.png'
p12
aS'/imatge/mtubau/projects/faces/Speech2Youtubers/youtubers_v2_test/alexpuertolas/cropped_face_frame_2697.png'
p13
aS'/imatge/mtubau/projects/faces/Speech2Youtubers/youtubers_v2_test/alexpuertolas/cropped_face_frame_7300.png'
p14
aS'/imatge/mtubau/projects/faces/Speech2Youtubers/youtubers_v2_test/alexpuertolas/cropped_face_frame_1682.png'
p15
aS'/imatge/mtubau/projects/faces/Speech2Youtubers/youtubers_v2_test/alexpuertolas/cropped_face_frame_3190.png'
p16
aS'/imatge/mtubau/projects/faces/Speech2Youtubers/youtubers_v2_test/alexpuertolas/cropped_face_frame_7975.png'
p17
aS'/imatge/mtubau/projects/faces/Speech2Youtubers/youtubers_v2_test/alexpuertolas/cropped_face_frame_5700.png'
p18
aS'/imatge/mtubau/projects/faces/Speech2Youtubers/youtubers_v2_test/alexpuertolas/cropped_face_frame_3175.png'
p19
aS'/imatge/mtubau/projects/faces/Speech2Youtubers/youtubers_v2_test/alexpuertolas/cropped_face_frame_3567.png'
p20
aS'/imatge/mtubau/projects/faces/Speech2Youtubers/youtubers_v2_test/alexpuertolas/cropped_face_frame_9250.png'
p21
aS'/imatge/mtubau/projects/faces/Speech2Youtubers/youtubers_v2_test/alexpuertolas/cropped_face_frame_7200.png'
p22
aS'/imatge/mtubau/projects/faces/Speech2Youtubers/youtubers_v2_test/alexpuertolas/cropped_face_frame_1856.png'
p23
aS'/imatge/mtubau/projects/faces/Speech2Youtubers/youtubers_v2_test/alexpuertolas/cropped_face_frame_9575.png'
p24
aS'/imatge/mtubau/projects/faces/Speech2Youtubers/youtubers_v2_test/alexpuertolas/cropped_face_frame_1624.png'
p25
aS'/imatge/mtubau/projects/faces/Speech2Youtubers/youtubers_v2_test/alexpuertolas/cropped_face_frame_3712.png'
p26
aS'/imatge/mtubau/projects/faces/Speech2Youtubers/youtubers_v2_test/alexpuertolas/cropped_face_frame_650.png'
p27
aS'/imatge/mtubau/projects/faces/Speech2Youtubers/youtubers_v2_test/alexpuertolas/cropped_face_frame_10075.png'
p28
aS'/imatge/mtubau/projects/faces/Speech2Youtubers/youtubers_v2_test/alexpuertolas/cropped_face_frame_3950.png'
p29
aS'/imatge/mtubau/projects/faces/Speech2Youtubers/youtubers_v2_test/alexpuertolas/cropped_face_frame_3741.png'
p30
aS'/imatge/mtubau/projects/faces/Speech2Youtubers/youtubers_v2_test/alexpuertolas/cropped_face_frame_1508.png'
p31
aS'/imatge/mtubau/projects/faces/Speech2Youtubers/youtubers_v2_test/alexpuertolas/cropped_face_frame_7425.png'
p32
aS'/imatge/mtubau/projects/faces/Speech2Youtubers/youtubers_v2_test/alexpuertolas/cropped_face_frame_2350.png'
p33
aS'/imatge/mtubau/projects/faces/Speech2Youtubers/youtubers_v2_test/alexpuertolas/cropped_face_frame_8925.png'
p34
aS'/imatge/mtubau/projects/faces/Speech2Youtubers/youtubers_v2_test/alexpuertolas/cropped_face_frame_675.png'
p35
aS'/imatge/mtubau/projects/faces/Speech2Youtubers/youtubers_v2_test/alexpuertolas/cropped_face_frame_2475.png'
p36
aS'/imatge/mtubau/projects/faces/Speech2Youtubers/youtubers_v2_test/alexpuertolas/cropped_face_frame_2575.png'
p37
aS'/imatge/mtubau/projects/faces/Speech2Youtubers/youtubers_v2_test/alexpuertolas/cropped_face_frame_7100.png'
p38
aS'/imatge/mtubau/projects/faces/Speech2Youtubers/youtubers_v2_test/alexpuertolas/cropped_face_frame_7859.png'
p39
aS'/imatge/mtubau/projects/faces/Speech2Youtubers/youtubers_v2_test/alexpuertolas/cropped_face_frame_10411.png'
p40
aS'/imatge/mtubau/projects/faces/Speech2Youtubers/youtubers_v2_test/alexpuertolas/cropped_face_frame_8900.png'
p41
aS'/imatge/mtubau/projects/faces/Speech2Youtubers/youtubers_v2_test/alexpuertolas/cropped_face_frame_4495.png'
p42
aS'/imatge/mtubau/projects/faces/Speech2Youtubers/youtubers_v2_test/alexpuertolas/cropped_face_frame_5249.png'
p43
aS'/imatge/mtubau/projects/faces/Speech2Youtubers/youtubers_v2_test/alexpuertolas/cropped_face_frame_4582.png'
p44
aS'/imatge/mtubau/projects/faces/Speech2Youtubers/youtubers_v2_test/alexpuertolas/cropped_face_frame_2300.png'
p45
aS'/imatge/mtubau/projects/faces/Speech2Youtubers/youtubers_v2_test/alexpuertolas/cropped_face_frame_8062.png'
p46
aS'/imatge/mtubau/projects/faces/Speech2Youtubers/youtubers_v2_test/alexpuertolas/cropped_face_frame_1300.png'
p47
aS'/imatge/mtubau/projects/faces/Speech2Youtubers/youtubers_v2_test/alexpuertolas/cropped_face_frame_2425.png'
p48
aS'/imatge/mtubau/projects/faces/Speech2Youtubers/youtubers_v2_test/alexpuertolas/cropped_face_frame_3975.png'
p49
aS'/imatge/mtubau/projects/faces/Speech2Youtubers/youtubers_v2_test/alexpuertolas/cropped_face_frame_625.png'
p50
aS'/imatge/mtubau/projects/faces/Speech2Youtubers/youtubers_v2_test/alexpuertolas/cropped_face_frame_9525.png'
p51
aS'/imatge/mtubau/projects/faces/Speech2Youtubers/youtubers_v2_test/alexpuertolas/cropped_face_frame_6699.png'
p52
aS'/imatge/mtubau/projects/faces/Speech2Youtubers/youtubers_v2_test/alexpuertolas/cropped_face_frame_3125.png'
p53
aS'/imatge/mtubau/projects/faces/Speech2Youtubers/youtubers_v2_test/alexpuertolas/cropped_face_frame_6575.png'
p54
aS'/imatge/mtubau/projects/faces/Speech2Youtubers/youtubers_v2_test/alexpuertolas/cropped_face_frame_5742.png'
p55
aS'/imatge/mtubau/projects/faces/Speech2Youtubers/youtubers_v2_test/javiermuniz/cropped_face_frame_7076.png'
p56
aS'/imatge/mtubau/projects/faces/Speech2Youtubers/youtubers_v2_test/javiermuniz/cropped_face_frame_1325.png'
p57
aS'/imatge/mtubau/projects/faces/Speech2Youtubers/youtubers_v2_test/javiermuniz/cropped_face_frame_5600.png'
p58
aS'/imatge/mtubau/projects/faces/Speech2Youtubers/youtubers_v2_test/javiermuniz/cropped_face_frame_5046.png'
p59
aS'/imatge/mtubau/projects/faces/Speech2Youtubers/youtubers_v2_test/javiermuniz/cropped_face_frame_1625.png'
p60
aS'/imatge/mtubau/projects/faces/Speech2Youtubers/youtubers_v2_test/javiermuniz/cropped_face_frame_350.png'
p61
aS'/imatge/mtubau/projects/faces/Speech2Youtubers/youtubers_v2_test/javiermuniz/cropped_face_frame_725.png'
p62
aS'/imatge/mtubau/projects/faces/Speech2Youtubers/youtubers_v2_test/javiermuniz/cropped_face_frame_3250.png'
p63
aS'/imatge/mtubau/projects/faces/Speech2Youtubers/youtubers_v2_test/javiermuniz/cropped_face_frame_450.png'
p64
aS'/imatge/mtubau/projects/faces/Speech2Youtubers/youtubers_v2_test/javiermuniz/cropped_face_frame_1750.png'
p65
aS'/imatge/mtubau/projects/faces/Speech2Youtubers/youtubers_v2_test/javiermuniz/cropped_face_frame_580.png'
p66
aS'/imatge/mtubau/projects/faces/Speech2Youtubers/youtubers_v2_test/javiermuniz/cropped_face_frame_6467.png'
p67
aS'/imatge/mtubau/projects/faces/Speech2Youtubers/youtubers_v2_test/javiermuniz/cropped_face_frame_6420.png'
p68
aS'/imatge/mtubau/projects/faces/Speech2Youtubers/youtubers_v2_test/javiermuniz/cropped_face_frame_1470.png'
p69
aS'/imatge/mtubau/projects/faces/Speech2Youtubers/youtubers_v2_test/javiermuniz/cropped_face_frame_2813.png'
p70
aS'/imatge/mtubau/projects/faces/Speech2Youtubers/youtubers_v2_test/javiermuniz/cropped_face_frame_5975.png'
p71
aS'/imatge/mtubau/projects/faces/Speech2Youtubers/youtubers_v2_test/javiermuniz/cropped_face_frame_5925.png'
p72
aS'/imatge/mtubau/projects/faces/Speech2Youtubers/youtubers_v2_test/javiermuniz/cropped_face_frame_975.png'
p73
aS'/imatge/mtubau/projects/faces/Speech2Youtubers/youtubers_v2_test/javiermuniz/cropped_face_frame_5275.png'
p74
aS'/imatge/mtubau/projects/faces/Speech2Youtubers/youtubers_v2_test/javiermuniz/cropped_face_frame_2160.png'
p75
aS'/imatge/mtubau/projects/faces/Speech2Youtubers/youtubers_v2_test/javiermuniz/cropped_face_frame_6225.png'
p76
aS'/imatge/mtubau/projects/faces/Speech2Youtubers/youtubers_v2_test/javiermuniz/cropped_face_frame_4553.png'
p77
aS'/imatge/mtubau/projects/faces/Speech2Youtubers/youtubers_v2_test/javiermuniz/cropped_face_frame_899.png'
p78
aS'/imatge/mtubau/projects/faces/Speech2Youtubers/youtubers_v2_test/javiermuniz/cropped_face_frame_6400.png'
p79
aS'/imatge/mtubau/projects/faces/Speech2Youtubers/youtubers_v2_test/javiermuniz/cropped_face_frame_3360.png'
p80
aS'/imatge/mtubau/projects/faces/Speech2Youtubers/youtubers_v2_test/javiermuniz/cropped_face_frame_1410.png'
p81
aS'/imatge/mtubau/projects/faces/Speech2Youtubers/youtubers_v2_test/javiermuniz/cropped_face_frame_4110.png'
p82
aS'/imatge/mtubau/projects/faces/Speech2Youtubers/youtubers_v2_test/javiermuniz/cropped_face_frame_5225.png'
p83
aS'/imatge/mtubau/projects/faces/Speech2Youtubers/youtubers_v2_test/javiermuniz/cropped_face_frame_7018.png'
p84
aS'/imatge/mtubau/projects/faces/Speech2Youtubers/youtubers_v2_test/javiermuniz/cropped_face_frame_3775.png'
p85
aS'/imatge/mtubau/projects/faces/Speech2Youtubers/youtubers_v2_test/javiermuniz/cropped_face_frame_7075.png'
p86
aS'/imatge/mtubau/projects/faces/Speech2Youtubers/youtubers_v2_test/javiermuniz/cropped_face_frame_6000.png'
p87
aS'/imatge/mtubau/projects/faces/Speech2Youtubers/youtubers_v2_test/javiermuniz/cropped_face_frame_4860.png'
p88
aS'/imatge/mtubau/projects/faces/Speech2Youtubers/youtubers_v2_test/javiermuniz/cropped_face_frame_2349.png'
p89
aS'/imatge/mtubau/projects/faces/Speech2Youtubers/youtubers_v2_test/javiermuniz/cropped_face_frame_1600.png'
p90
aS'/imatge/mtubau/projects/faces/Speech2Youtubers/youtubers_v2_test/javiermuniz/cropped_face_frame_4175.png'
p91
aS'/imatge/mtubau/projects/faces/Speech2Youtubers/youtubers_v2_test/javiermuniz/cropped_face_frame_4234.png'
p92
aS'/imatge/mtubau/projects/faces/Speech2Youtubers/youtubers_v2_test/javiermuniz/cropped_face_frame_3100.png'
p93
aS'/imatge/mtubau/projects/faces/Speech2Youtubers/youtubers_v2_test/javiermuniz/cropped_face_frame_1972.png'
p94
aS'/imatge/mtubau/projects/faces/Speech2Youtubers/youtubers_v2_test/javiermuniz/cropped_face_frame_6775.png'
p95
aS'/imatge/mtubau/projects/faces/Speech2Youtubers/youtubers_v2_test/javiermuniz/cropped_face_frame_2750.png'
p96
aS'/imatge/mtubau/projects/faces/Speech2Youtubers/youtubers_v2_test/javiermuniz/cropped_face_frame_2784.png'
p97
aS'/imatge/mtubau/projects/faces/Speech2Youtubers/youtubers_v2_test/javiermuniz/cropped_face_frame_5858.png'
p98
aS'/imatge/mtubau/projects/faces/Speech2Youtubers/youtubers_v2_test/javiermuniz/cropped_face_frame_1530.png'
p99
aS'/imatge/mtubau/projects/faces/Speech2Youtubers/youtubers_v2_test/javiermuniz/cropped_face_frame_1682.png'
p100
aS'/imatge/mtubau/projects/faces/Speech2Youtubers/youtubers_v2_test/javiermuniz/cropped_face_frame_5825.png'
p101
aS'/imatge/mtubau/projects/faces/Speech2Youtubers/youtubers_v2_test/javiermuniz/cropped_face_frame_2030.png'
p102
aS'/imatge/mtubau/projects/faces/Speech2Youtubers/youtubers_v2_test/javiermuniz/cropped_face_frame_2233.png'
p103
aS'/imatge/mtubau/projects/faces/Speech2Youtubers/youtubers_v2_test/javiermuniz/cropped_face_frame_2775.png'
p104
aS'/imatge/mtubau/projects/faces/Speech2Youtubers/youtubers_v2_test/auronplay/cropped_face_frame_20039.png'
p105
aS'/imatge/mtubau/projects/faces/Speech2Youtubers/youtubers_v2_test/auronplay/cropped_face_frame_575.png'
p106
aS'/imatge/mtubau/projects/faces/Speech2Youtubers/youtubers_v2_test/auronplay/cropped_face_frame_20619.png'
p107
aS'/imatge/mtubau/projects/faces/Speech2Youtubers/youtubers_v2_test/auronplay/cropped_face_frame_20851.png'
p108
aS'/imatge/mtubau/projects/faces/Speech2Youtubers/youtubers_v2_test/auronplay/cropped_face_frame_18270.png'
p109
aS'/imatge/mtubau/projects/faces/Speech2Youtubers/youtubers_v2_test/auronplay/cropped_face_frame_4437.png'
p110
aS'/imatge/mtubau/projects/faces/Speech2Youtubers/youtubers_v2_test/auronplay/cropped_face_frame_4756.png'
p111
aS'/imatge/mtubau/projects/faces/Speech2Youtubers/youtubers_v2_test/auronplay/cropped_face_frame_19981.png'
p112
aS'/imatge/mtubau/projects/faces/Speech2Youtubers/youtubers_v2_test/auronplay/cropped_face_frame_3690.png'
p113
aS'/imatge/mtubau/projects/faces/Speech2Youtubers/youtubers_v2_test/auronplay/cropped_face_frame_1073.png'
p114
aS'/imatge/mtubau/projects/faces/Speech2Youtubers/youtubers_v2_test/auronplay/cropped_face_frame_7656.png'
p115
aS'/imatge/mtubau/projects/faces/Speech2Youtubers/youtubers_v2_test/auronplay/cropped_face_frame_1225.png'
p116
aS'/imatge/mtubau/projects/faces/Speech2Youtubers/youtubers_v2_test/auronplay/cropped_face_frame_14007.png'
p117
aS'/imatge/mtubau/projects/faces/Speech2Youtubers/youtubers_v2_test/auronplay/cropped_face_frame_18908.png'
p118
aS'/imatge/mtubau/projects/faces/Speech2Youtubers/youtubers_v2_test/auronplay/cropped_face_frame_20909.png'
p119
aS'/imatge/mtubau/projects/faces/Speech2Youtubers/youtubers_v2_test/auronplay/cropped_face_frame_16153.png'
p120
aS'/imatge/mtubau/projects/faces/Speech2Youtubers/youtubers_v2_test/auronplay/cropped_face_frame_11165.png'
p121
aS'/imatge/mtubau/projects/faces/Speech2Youtubers/youtubers_v2_test/auronplay/cropped_face_frame_3250.png'
p122
aS'/imatge/mtubau/projects/faces/Speech2Youtubers/youtubers_v2_test/auronplay/cropped_face_frame_1537.png'
p123
aS'/imatge/mtubau/projects/faces/Speech2Youtubers/youtubers_v2_test/auronplay/cropped_face_frame_11049.png'
p124
aS'/imatge/mtubau/projects/faces/Speech2Youtubers/youtubers_v2_test/auronplay/cropped_face_frame_2088.png'
p125
aS'/imatge/mtubau/projects/faces/Speech2Youtubers/youtubers_v2_test/auronplay/cropped_face_frame_1350.png'
p126
aS'/imatge/mtubau/projects/faces/Speech2Youtubers/youtubers_v2_test/auronplay/cropped_face_frame_17893.png'
p127
aS'/imatge/mtubau/projects/faces/Speech2Youtubers/youtubers_v2_test/auronplay/cropped_face_frame_2987.png'
p128
aS'/imatge/mtubau/projects/faces/Speech2Youtubers/youtubers_v2_test/auronplay/cropped_face_frame_1825.png'
p129
aS'/imatge/mtubau/projects/faces/Speech2Youtubers/youtubers_v2_test/auronplay/cropped_face_frame_6148.png'
p130
aS'/imatge/mtubau/projects/faces/Speech2Youtubers/youtubers_v2_test/auronplay/cropped_face_frame_6554.png'
p131
aS'/imatge/mtubau/projects/faces/Speech2Youtubers/youtubers_v2_test/auronplay/cropped_face_frame_20400.png'
p132
aS'/imatge/mtubau/projects/faces/Speech2Youtubers/youtubers_v2_test/auronplay/cropped_face_frame_2250.png'
p133
aS'/imatge/mtubau/projects/faces/Speech2Youtubers/youtubers_v2_test/auronplay/cropped_face_frame_464.png'
p134
aS'/imatge/mtubau/projects/faces/Speech2Youtubers/youtubers_v2_test/auronplay/cropped_face_frame_2375.png'
p135
aS'/imatge/mtubau/projects/faces/Speech2Youtubers/youtubers_v2_test/auronplay/cropped_face_frame_2600.png'
p136
aS'/imatge/mtubau/projects/faces/Speech2Youtubers/youtubers_v2_test/auronplay/cropped_face_frame_9599.png'
p137
aS'/imatge/mtubau/projects/faces/Speech2Youtubers/youtubers_v2_test/auronplay/cropped_face_frame_2525.png'
p138
aS'/imatge/mtubau/projects/faces/Speech2Youtubers/youtubers_v2_test/auronplay/cropped_face_frame_14152.png'
p139
aS'/imatge/mtubau/projects/faces/Speech2Youtubers/youtubers_v2_test/auronplay/cropped_face_frame_20764.png'
p140
aS'/imatge/mtubau/projects/faces/Speech2Youtubers/youtubers_v2_test/auronplay/cropped_face_frame_14732.png'
p141
aS'/imatge/mtubau/projects/faces/Speech2Youtubers/youtubers_v2_test/auronplay/cropped_face_frame_8070.png'
p142
aS'/imatge/mtubau/projects/faces/Speech2Youtubers/youtubers_v2_test/auronplay/cropped_face_frame_20938.png'
p143
aS'/imatge/mtubau/projects/faces/Speech2Youtubers/youtubers_v2_test/auronplay/cropped_face_frame_1885.png'
p144
aS'/imatge/mtubau/projects/faces/Speech2Youtubers/youtubers_v2_test/auronplay/cropped_face_frame_15399.png'
p145
aS'/imatge/mtubau/projects/faces/Speech2Youtubers/youtubers_v2_test/auronplay/cropped_face_frame_14094.png'
p146
aS'/imatge/mtubau/projects/faces/Speech2Youtubers/youtubers_v2_test/auronplay/cropped_face_frame_4872.png'
p147
aS'/imatge/mtubau/projects/faces/Speech2Youtubers/youtubers_v2_test/auronplay/cropped_face_frame_3270.png'
p148
aS'/imatge/mtubau/projects/faces/Speech2Youtubers/youtubers_v2_test/jaimealtozano/cropped_face_frame_16150.png'
p149
aS'/imatge/mtubau/projects/faces/Speech2Youtubers/youtubers_v2_test/jaimealtozano/cropped_face_frame_9650.png'
p150
aS'/imatge/mtubau/projects/faces/Speech2Youtubers/youtubers_v2_test/jaimealtozano/cropped_face_frame_11025.png'
p151
aS'/imatge/mtubau/projects/faces/Speech2Youtubers/youtubers_v2_test/jaimealtozano/cropped_face_frame_2275.png'
p152
aS'/imatge/mtubau/projects/faces/Speech2Youtubers/youtubers_v2_test/jaimealtozano/cropped_face_frame_15100.png'
p153
aS'/imatge/mtubau/projects/faces/Speech2Youtubers/youtubers_v2_test/jaimealtozano/cropped_face_frame_11475.png'
p154
aS'/imatge/mtubau/projects/faces/Speech2Youtubers/youtubers_v2_test/jaimealtozano/cropped_face_frame_14850.png'
p155
aS'/imatge/mtubau/projects/faces/Speech2Youtubers/youtubers_v2_test/jaimealtozano/cropped_face_frame_7975.png'
p156
aS'/imatge/mtubau/projects/faces/Speech2Youtubers/youtubers_v2_test/jaimealtozano/cropped_face_frame_8200.png'
p157
aS'/imatge/mtubau/projects/faces/Speech2Youtubers/youtubers_v2_test/jaimealtozano/cropped_face_frame_13750.png'
p158
aS'/imatge/mtubau/projects/faces/Speech2Youtubers/youtubers_v2_test/jaimealtozano/cropped_face_frame_2250.png'
p159
aS'/imatge/mtubau/projects/faces/Speech2Youtubers/youtubers_v2_test/jaimealtozano/cropped_face_frame_2500.png'
p160
aS'/imatge/mtubau/projects/faces/Speech2Youtubers/youtubers_v2_test/jaimealtozano/cropped_face_frame_3625.png'
p161
aS'/imatge/mtubau/projects/faces/Speech2Youtubers/youtubers_v2_test/jaimealtozano/cropped_face_frame_575.png'
p162
aS'/imatge/mtubau/projects/faces/Speech2Youtubers/youtubers_v2_test/jaimealtozano/cropped_face_frame_4300.png'
p163
aS'/imatge/mtubau/projects/faces/Speech2Youtubers/youtubers_v2_test/jaimealtozano/cropped_face_frame_9000.png'
p164
aS'/imatge/mtubau/projects/faces/Speech2Youtubers/youtubers_v2_test/jaimealtozano/cropped_face_frame_6500.png'
p165
aS'/imatge/mtubau/projects/faces/Speech2Youtubers/youtubers_v2_test/jaimealtozano/cropped_face_frame_6775.png'
p166
aS'/imatge/mtubau/projects/faces/Speech2Youtubers/youtubers_v2_test/jaimealtozano/cropped_face_frame_2900.png'
p167
aS'/imatge/mtubau/projects/faces/Speech2Youtubers/youtubers_v2_test/jaimealtozano/cropped_face_frame_10800.png'
p168
aS'/imatge/mtubau/projects/faces/Speech2Youtubers/youtubers_v2_test/jaimealtozano/cropped_face_frame_10350.png'
p169
aS'/imatge/mtubau/projects/faces/Speech2Youtubers/youtubers_v2_test/jaimealtozano/cropped_face_frame_8350.png'
p170
aS'/imatge/mtubau/projects/faces/Speech2Youtubers/youtubers_v2_test/jaimealtozano/cropped_face_frame_7700.png'
p171
aS'/imatge/mtubau/projects/faces/Speech2Youtubers/youtubers_v2_test/jaimealtozano/cropped_face_frame_3500.png'
p172
aS'/imatge/mtubau/projects/faces/Speech2Youtubers/youtubers_v2_test/jaimealtozano/cropped_face_frame_1750.png'
p173
aS'/imatge/mtubau/projects/faces/Speech2Youtubers/youtubers_v2_test/jaimealtozano/cropped_face_frame_800.png'
p174
aS'/imatge/mtubau/projects/faces/Speech2Youtubers/youtubers_v2_test/jaimealtozano/cropped_face_frame_15000.png'
p175
aS'/imatge/mtubau/projects/faces/Speech2Youtubers/youtubers_v2_test/jaimealtozano/cropped_face_frame_5300.png'
p176
aS'/imatge/mtubau/projects/faces/Speech2Youtubers/youtubers_v2_test/jaimealtozano/cropped_face_frame_15650.png'
p177
aS'/imatge/mtubau/projects/faces/Speech2Youtubers/youtubers_v2_test/jaimealtozano/cropped_face_frame_1650.png'
p178
aS'/imatge/mtubau/projects/faces/Speech2Youtubers/youtubers_v2_test/jaimealtozano/cropped_face_frame_5675.png'
p179
aS'/imatge/mtubau/projects/faces/Speech2Youtubers/youtubers_v2_test/jaimealtozano/cropped_face_frame_6175.png'
p180
aS'/imatge/mtubau/projects/faces/Speech2Youtubers/youtubers_v2_test/jaimealtozano/cropped_face_frame_5900.png'
p181
aS'/imatge/mtubau/projects/faces/Speech2Youtubers/youtubers_v2_test/jaimealtozano/cropped_face_frame_6000.png'
p182
aS'/imatge/mtubau/projects/faces/Speech2Youtubers/youtubers_v2_test/jaimealtozano/cropped_face_frame_3400.png'
p183
aS'/imatge/mtubau/projects/faces/Speech2Youtubers/youtubers_v2_test/jaimealtozano/cropped_face_frame_15800.png'
p184
aS'/imatge/mtubau/projects/faces/Speech2Youtubers/youtubers_v2_test/jaimealtozano/cropped_face_frame_15300.png'
p185
aS'/imatge/mtubau/projects/faces/Speech2Youtubers/youtubers_v2_test/jaimealtozano/cropped_face_frame_9625.png'
p186
aS'/imatge/mtubau/projects/faces/Speech2Youtubers/youtubers_v2_test/jaimealtozano/cropped_face_frame_5175.png'
p187
aS'/imatge/mtubau/projects/faces/Speech2Youtubers/youtubers_v2_test/jaimealtozano/cropped_face_frame_14375.png'
p188
aS'/imatge/mtubau/projects/faces/Speech2Youtubers/youtubers_v2_test/luzuvlogs/cropped_face_frame_8550.png'
p189
aS'/imatge/mtubau/projects/faces/Speech2Youtubers/youtubers_v2_test/luzuvlogs/cropped_face_frame_2820.png'
p190
aS'/imatge/mtubau/projects/faces/Speech2Youtubers/youtubers_v2_test/luzuvlogs/cropped_face_frame_10150.png'
p191
aS'/imatge/mtubau/projects/faces/Speech2Youtubers/youtubers_v2_test/luzuvlogs/cropped_face_frame_6450.png'
p192
aS'/imatge/mtubau/projects/faces/Speech2Youtubers/youtubers_v2_test/luzuvlogs/cropped_face_frame_510.png'
p193
aS'/imatge/mtubau/projects/faces/Speech2Youtubers/youtubers_v2_test/luzuvlogs/cropped_face_frame_7714.png'
p194
aS'/imatge/mtubau/projects/faces/Speech2Youtubers/youtubers_v2_test/luzuvlogs/cropped_face_frame_5310.png'
p195
aS'/imatge/mtubau/projects/faces/Speech2Youtubers/youtubers_v2_test/luzuvlogs/cropped_face_frame_6390.png'
p196
aS'/imatge/mtubau/projects/faces/Speech2Youtubers/youtubers_v2_test/luzuvlogs/cropped_face_frame_11970.png'
p197
aS'/imatge/mtubau/projects/faces/Speech2Youtubers/youtubers_v2_test/luzuvlogs/cropped_face_frame_6612.png'
p198
aS'/imatge/mtubau/projects/faces/Speech2Youtubers/youtubers_v2_test/luzuvlogs/cropped_face_frame_8520.png'
p199
aS'/imatge/mtubau/projects/faces/Speech2Youtubers/youtubers_v2_test/luzuvlogs/cropped_face_frame_1537.png'
p200
aS'/imatge/mtubau/projects/faces/Speech2Youtubers/youtubers_v2_test/luzuvlogs/cropped_face_frame_1218.png'
p201
aS'/imatge/mtubau/projects/faces/Speech2Youtubers/youtubers_v2_test/luzuvlogs/cropped_face_frame_4680.png'
p202
aS'/imatge/mtubau/projects/faces/Speech2Youtubers/youtubers_v2_test/luzuvlogs/cropped_face_frame_15480.png'
p203
aS'/imatge/mtubau/projects/faces/Speech2Youtubers/youtubers_v2_test/luzuvlogs/cropped_face_frame_6120.png'
p204
aS'/imatge/mtubau/projects/faces/Speech2Youtubers/youtubers_v2_test/luzuvlogs/cropped_face_frame_10266.png'
p205
aS'/imatge/mtubau/projects/faces/Speech2Youtubers/youtubers_v2_test/luzuvlogs/cropped_face_frame_4800.png'
p206
aS'/imatge/mtubau/projects/faces/Speech2Youtubers/youtubers_v2_test/luzuvlogs/cropped_face_frame_8220.png'
p207
aS'/imatge/mtubau/projects/faces/Speech2Youtubers/youtubers_v2_test/luzuvlogs/cropped_face_frame_13290.png'
p208
aS'/imatge/mtubau/projects/faces/Speech2Youtubers/youtubers_v2_test/luzuvlogs/cropped_face_frame_12270.png'
p209
aS'/imatge/mtubau/projects/faces/Speech2Youtubers/youtubers_v2_test/luzuvlogs/cropped_face_frame_16650.png'
p210
aS'/imatge/mtubau/projects/faces/Speech2Youtubers/youtubers_v2_test/luzuvlogs/cropped_face_frame_13830.png'
p211
aS'/imatge/mtubau/projects/faces/Speech2Youtubers/youtubers_v2_test/luzuvlogs/cropped_face_frame_13514.png'
p212
aS'/imatge/mtubau/projects/faces/Speech2Youtubers/youtubers_v2_test/luzuvlogs/cropped_face_frame_12064.png'
p213
aS'/imatge/mtubau/projects/faces/Speech2Youtubers/youtubers_v2_test/luzuvlogs/cropped_face_frame_5700.png'
p214
aS'/imatge/mtubau/projects/faces/Speech2Youtubers/youtubers_v2_test/luzuvlogs/cropped_face_frame_5460.png'
p215
aS'/imatge/mtubau/projects/faces/Speech2Youtubers/youtubers_v2_test/luzuvlogs/cropped_face_frame_10740.png'
p216
aS'/imatge/mtubau/projects/faces/Speech2Youtubers/youtubers_v2_test/luzuvlogs/cropped_face_frame_1680.png'
p217
aS'/imatge/mtubau/projects/faces/Speech2Youtubers/youtubers_v2_test/luzuvlogs/cropped_face_frame_14400.png'
p218
aS'/imatge/mtubau/projects/faces/Speech2Youtubers/youtubers_v2_test/luzuvlogs/cropped_face_frame_14500.png'
p219
aS'/imatge/mtubau/projects/faces/Speech2Youtubers/youtubers_v2_test/luzuvlogs/cropped_face_frame_14587.png'
p220
aS'/imatge/mtubau/projects/faces/Speech2Youtubers/youtubers_v2_test/luzuvlogs/cropped_face_frame_16124.png'
p221
aS'/imatge/mtubau/projects/faces/Speech2Youtubers/youtubers_v2_test/luzuvlogs/cropped_face_frame_1566.png'
p222
aS'/imatge/mtubau/projects/faces/Speech2Youtubers/youtubers_v2_test/luzuvlogs/cropped_face_frame_2760.png'
p223
aS'/imatge/mtubau/projects/faces/Speech2Youtubers/youtubers_v2_test/luzuvlogs/cropped_face_frame_3870.png'
p224
aS'/imatge/mtubau/projects/faces/Speech2Youtubers/youtubers_v2_test/mely/cropped_face_frame_7424.png'
p225
aS'/imatge/mtubau/projects/faces/Speech2Youtubers/youtubers_v2_test/mely/cropped_face_frame_2668.png'
p226
aS'/imatge/mtubau/projects/faces/Speech2Youtubers/youtubers_v2_test/mely/cropped_face_frame_5100.png'
p227
aS'/imatge/mtubau/projects/faces/Speech2Youtubers/youtubers_v2_test/mely/cropped_face_frame_11165.png'
p228
aS'/imatge/mtubau/projects/faces/Speech2Youtubers/youtubers_v2_test/mely/cropped_face_frame_12209.png'
p229
aS'/imatge/mtubau/projects/faces/Speech2Youtubers/youtubers_v2_test/mely/cropped_face_frame_5655.png'
p230
aS'/imatge/mtubau/projects/faces/Speech2Youtubers/youtubers_v2_test/mely/cropped_face_frame_6409.png'
p231
aS'/imatge/mtubau/projects/faces/Speech2Youtubers/youtubers_v2_test/mely/cropped_face_frame_6275.png'
p232
aS'/imatge/mtubau/projects/faces/Speech2Youtubers/youtubers_v2_test/mely/cropped_face_frame_5350.png'
p233
aS'/imatge/mtubau/projects/faces/Speech2Youtubers/youtubers_v2_test/mely/cropped_face_frame_9800.png'
p234
aS'/imatge/mtubau/projects/faces/Speech2Youtubers/youtubers_v2_test/mely/cropped_face_frame_1425.png'
p235
aS'/imatge/mtubau/projects/faces/Speech2Youtubers/youtubers_v2_test/mely/cropped_face_frame_6351.png'
p236
aS'/imatge/mtubau/projects/faces/Speech2Youtubers/youtubers_v2_test/mely/cropped_face_frame_10991.png'
p237
aS'/imatge/mtubau/projects/faces/Speech2Youtubers/youtubers_v2_test/mely/cropped_face_frame_8700.png'
p238
aS'/imatge/mtubau/projects/faces/Speech2Youtubers/youtubers_v2_test/mely/cropped_face_frame_11571.png'
p239
aS'/imatge/mtubau/projects/faces/Speech2Youtubers/youtubers_v2_test/mely/cropped_face_frame_6757.png'
p240
aS'/imatge/mtubau/projects/faces/Speech2Youtubers/youtubers_v2_test/mely/cropped_face_frame_4089.png'
p241
aS'/imatge/mtubau/projects/faces/Speech2Youtubers/youtubers_v2_test/mely/cropped_face_frame_11020.png'
p242
aS'/imatge/mtubau/projects/faces/Speech2Youtubers/youtubers_v2_test/mely/cropped_face_frame_8468.png'
p243
aS'/imatge/mtubau/projects/faces/Speech2Youtubers/youtubers_v2_test/mely/cropped_face_frame_4925.png'
p244
aS'/imatge/mtubau/projects/faces/Speech2Youtubers/youtubers_v2_test/mely/cropped_face_frame_5725.png'
p245
aS'/imatge/mtubau/projects/faces/Speech2Youtubers/youtubers_v2_test/mely/cropped_face_frame_10295.png'
p246
aS'/imatge/mtubau/projects/faces/Speech2Youtubers/youtubers_v2_test/mely/cropped_face_frame_899.png'
p247
aS'/imatge/mtubau/projects/faces/Speech2Youtubers/youtubers_v2_test/mely/cropped_face_frame_11500.png'
p248
aS'/imatge/mtubau/projects/faces/Speech2Youtubers/youtubers_v2_test/mely/cropped_face_frame_4575.png'
p249
aS'/imatge/mtubau/projects/faces/Speech2Youtubers/youtubers_v2_test/mely/cropped_face_frame_9106.png'
p250
aS'/imatge/mtubau/projects/faces/Speech2Youtubers/youtubers_v2_test/mely/cropped_face_frame_11832.png'
p251
aS'/imatge/mtubau/projects/faces/Speech2Youtubers/youtubers_v2_test/mely/cropped_face_frame_8642.png'
p252
aS'/imatge/mtubau/projects/faces/Speech2Youtubers/youtubers_v2_test/mely/cropped_face_frame_1350.png'
p253
aS'/imatge/mtubau/projects/faces/Speech2Youtubers/youtubers_v2_test/mely/cropped_face_frame_1275.png'
p254
aS'/imatge/mtubau/projects/faces/Speech2Youtubers/youtubers_v2_test/mely/cropped_face_frame_4611.png'
p255
aS'/imatge/mtubau/projects/faces/Speech2Youtubers/youtubers_v2_test/mely/cropped_face_frame_2436.png'
p256
aS'/imatge/mtubau/projects/faces/Speech2Youtubers/youtubers_v2_test/focusingvlogs/cropped_face_frame_5100.png'
p257
aS'/imatge/mtubau/projects/faces/Speech2Youtubers/youtubers_v2_test/focusingvlogs/cropped_face_frame_450.png'
p258
aS'/imatge/mtubau/projects/faces/Speech2Youtubers/youtubers_v2_test/focusingvlogs/cropped_face_frame_6675.png'
p259
aS'/imatge/mtubau/projects/faces/Speech2Youtubers/youtubers_v2_test/focusingvlogs/cropped_face_frame_7800.png'
p260
aS'/imatge/mtubau/projects/faces/Speech2Youtubers/youtubers_v2_test/focusingvlogs/cropped_face_frame_9075.png'
p261
aS'/imatge/mtubau/projects/faces/Speech2Youtubers/youtubers_v2_test/focusingvlogs/cropped_face_frame_7700.png'
p262
aS'/imatge/mtubau/projects/faces/Speech2Youtubers/youtubers_v2_test/focusingvlogs/cropped_face_frame_20175.png'
p263
aS'/imatge/mtubau/projects/faces/Speech2Youtubers/youtubers_v2_test/focusingvlogs/cropped_face_frame_6875.png'
p264
aS'/imatge/mtubau/projects/faces/Speech2Youtubers/youtubers_v2_test/focusingvlogs/cropped_face_frame_1175.png'
p265
aS'/imatge/mtubau/projects/faces/Speech2Youtubers/youtubers_v2_test/focusingvlogs/cropped_face_frame_11975.png'
p266
aS'/imatge/mtubau/projects/faces/Speech2Youtubers/youtubers_v2_test/focusingvlogs/cropped_face_frame_2625.png'
p267
aS'/imatge/mtubau/projects/faces/Speech2Youtubers/youtubers_v2_test/focusingvlogs/cropped_face_frame_17650.png'
p268
aS'/imatge/mtubau/projects/faces/Speech2Youtubers/youtubers_v2_test/focusingvlogs/cropped_face_frame_20700.png'
p269
aS'/imatge/mtubau/projects/faces/Speech2Youtubers/youtubers_v2_test/focusingvlogs/cropped_face_frame_11700.png'
p270
aS'/imatge/mtubau/projects/faces/Speech2Youtubers/youtubers_v2_test/focusingvlogs/cropped_face_frame_13525.png'
p271
aS'/imatge/mtubau/projects/faces/Speech2Youtubers/youtubers_v2_test/focusingvlogs/cropped_face_frame_16775.png'
p272
aS'/imatge/mtubau/projects/faces/Speech2Youtubers/youtubers_v2_test/focusingvlogs/cropped_face_frame_12925.png'
p273
aS'/imatge/mtubau/projects/faces/Speech2Youtubers/youtubers_v2_test/focusingvlogs/cropped_face_frame_6075.png'
p274
aS'/imatge/mtubau/projects/faces/Speech2Youtubers/youtubers_v2_test/focusingvlogs/cropped_face_frame_5625.png'
p275
aS'/imatge/mtubau/projects/faces/Speech2Youtubers/youtubers_v2_test/focusingvlogs/cropped_face_frame_1200.png'
p276
aS'/imatge/mtubau/projects/faces/Speech2Youtubers/youtubers_v2_test/focusingvlogs/cropped_face_frame_12475.png'
p277
aS'/imatge/mtubau/projects/faces/Speech2Youtubers/youtubers_v2_test/focusingvlogs/cropped_face_frame_8675.png'
p278
aS'/imatge/mtubau/projects/faces/Speech2Youtubers/youtubers_v2_test/focusingvlogs/cropped_face_frame_10800.png'
p279
aS'/imatge/mtubau/projects/faces/Speech2Youtubers/youtubers_v2_test/focusingvlogs/cropped_face_frame_9800.png'
p280
aS'/imatge/mtubau/projects/faces/Speech2Youtubers/youtubers_v2_test/focusingvlogs/cropped_face_frame_4600.png'
p281
aS'/imatge/mtubau/projects/faces/Speech2Youtubers/youtubers_v2_test/focusingvlogs/cropped_face_frame_2775.png'
p282
aS'/imatge/mtubau/projects/faces/Speech2Youtubers/youtubers_v2_test/focusingvlogs/cropped_face_frame_18275.png'
p283
aS'/imatge/mtubau/projects/faces/Speech2Youtubers/youtubers_v2_test/focusingvlogs/cropped_face_frame_5650.png'
p284
aS'/imatge/mtubau/projects/faces/Speech2Youtubers/youtubers_v2_test/focusingvlogs/cropped_face_frame_12950.png'
p285
aS'/imatge/mtubau/projects/faces/Speech2Youtubers/youtubers_v2_test/amigosdelaquimica/cropped_face_frame_4770.png'
p286
aS'/imatge/mtubau/projects/faces/Speech2Youtubers/youtubers_v2_test/amigosdelaquimica/cropped_face_frame_9870.png'
p287
aS'/imatge/mtubau/projects/faces/Speech2Youtubers/youtubers_v2_test/amigosdelaquimica/cropped_face_frame_5750.png'
p288
aS'/imatge/mtubau/projects/faces/Speech2Youtubers/youtubers_v2_test/amigosdelaquimica/cropped_face_frame_14325.png'
p289
aS'/imatge/mtubau/projects/faces/Speech2Youtubers/youtubers_v2_test/amigosdelaquimica/cropped_face_frame_1825.png'
p290
aS'/imatge/mtubau/projects/faces/Speech2Youtubers/youtubers_v2_test/amigosdelaquimica/cropped_face_frame_17040.png'
p291
aS'/imatge/mtubau/projects/faces/Speech2Youtubers/youtubers_v2_test/amigosdelaquimica/cropped_face_frame_20774.png'
p292
aS'/imatge/mtubau/projects/faces/Speech2Youtubers/youtubers_v2_test/amigosdelaquimica/cropped_face_frame_2275.png'
p293
aS'/imatge/mtubau/projects/faces/Speech2Youtubers/youtubers_v2_test/amigosdelaquimica/cropped_face_frame_20960.png'
p294
aS'/imatge/mtubau/projects/faces/Speech2Youtubers/youtubers_v2_test/amigosdelaquimica/cropped_face_frame_3990.png'
p295
aS'/imatge/mtubau/projects/faces/Speech2Youtubers/youtubers_v2_test/amigosdelaquimica/cropped_face_frame_6550.png'
p296
aS'/imatge/mtubau/projects/faces/Speech2Youtubers/youtubers_v2_test/amigosdelaquimica/cropped_face_frame_11950.png'
p297
aS'/imatge/mtubau/projects/faces/Speech2Youtubers/youtubers_v2_test/amigosdelaquimica/cropped_face_frame_12390.png'
p298
aS'/imatge/mtubau/projects/faces/Speech2Youtubers/youtubers_v2_test/amigosdelaquimica/cropped_face_frame_5125.png'
p299
aS'/imatge/mtubau/projects/faces/Speech2Youtubers/youtubers_v2_test/amigosdelaquimica/cropped_face_frame_10375.png'
p300
aS'/imatge/mtubau/projects/faces/Speech2Youtubers/youtubers_v2_test/amigosdelaquimica/cropped_face_frame_1368.png'
p301
aS'/imatge/mtubau/projects/faces/Speech2Youtubers/youtubers_v2_test/amigosdelaquimica/cropped_face_frame_5650.png'
p302
aS'/imatge/mtubau/projects/faces/Speech2Youtubers/youtubers_v2_test/amigosdelaquimica/cropped_face_frame_690.png'
p303
aS'/imatge/mtubau/projects/faces/Speech2Youtubers/youtubers_v2_test/amigosdelaquimica/cropped_face_frame_5100.png'
p304
aS'/imatge/mtubau/projects/faces/Speech2Youtubers/youtubers_v2_test/amigosdelaquimica/cropped_face_frame_20531.png'
p305
aS'/imatge/mtubau/projects/faces/Speech2Youtubers/youtubers_v2_test/amigosdelaquimica/cropped_face_frame_2725.png'
p306
aS'/imatge/mtubau/projects/faces/Speech2Youtubers/youtubers_v2_test/amigosdelaquimica/cropped_face_frame_408.png'
p307
aS'/imatge/mtubau/projects/faces/Speech2Youtubers/youtubers_v2_test/amigosdelaquimica/cropped_face_frame_4450.png'
p308
aS'/imatge/mtubau/projects/faces/Speech2Youtubers/youtubers_v2_test/amigosdelaquimica/cropped_face_frame_13140.png'
p309
aS'/imatge/mtubau/projects/faces/Speech2Youtubers/youtubers_v2_test/amigosdelaquimica/cropped_face_frame_1392.png'
p310
aS'/imatge/mtubau/projects/faces/Speech2Youtubers/youtubers_v2_test/amigosdelaquimica/cropped_face_frame_10600.png'
p311
aS'/imatge/mtubau/projects/faces/Speech2Youtubers/youtubers_v2_test/soyunapringada/cropped_face_frame_18050.png'
p312
aS'/imatge/mtubau/projects/faces/Speech2Youtubers/youtubers_v2_test/soyunapringada/cropped_face_frame_11975.png'
p313
aS'/imatge/mtubau/projects/faces/Speech2Youtubers/youtubers_v2_test/soyunapringada/cropped_face_frame_9225.png'
p314
aS'/imatge/mtubau/projects/faces/Speech2Youtubers/youtubers_v2_test/soyunapringada/cropped_face_frame_24200.png'
p315
aS'/imatge/mtubau/projects/faces/Speech2Youtubers/youtubers_v2_test/soyunapringada/cropped_face_frame_8275.png'
p316
aS'/imatge/mtubau/projects/faces/Speech2Youtubers/youtubers_v2_test/soyunapringada/cropped_face_frame_18325.png'
p317
aS'/imatge/mtubau/projects/faces/Speech2Youtubers/youtubers_v2_test/soyunapringada/cropped_face_frame_22975.png'
p318
aS'/imatge/mtubau/projects/faces/Speech2Youtubers/youtubers_v2_test/soyunapringada/cropped_face_frame_2675.png'
p319
aS'/imatge/mtubau/projects/faces/Speech2Youtubers/youtubers_v2_test/soyunapringada/cropped_face_frame_26000.png'
p320
aS'/imatge/mtubau/projects/faces/Speech2Youtubers/youtubers_v2_test/soyunapringada/cropped_face_frame_8725.png'
p321
aS'/imatge/mtubau/projects/faces/Speech2Youtubers/youtubers_v2_test/soyunapringada/cropped_face_frame_1200.png'
p322
aS'/imatge/mtubau/projects/faces/Speech2Youtubers/youtubers_v2_test/soyunapringada/cropped_face_frame_5550.png'
p323
aS'/imatge/mtubau/projects/faces/Speech2Youtubers/youtubers_v2_test/soyunapringada/cropped_face_frame_26225.png'
p324
aS'/imatge/mtubau/projects/faces/Speech2Youtubers/youtubers_v2_test/soyunapringada/cropped_face_frame_15800.png'
p325
aS'/imatge/mtubau/projects/faces/Speech2Youtubers/youtubers_v2_test/soyunapringada/cropped_face_frame_8225.png'
p326
aS'/imatge/mtubau/projects/faces/Speech2Youtubers/youtubers_v2_test/soyunapringada/cropped_face_frame_1800.png'
p327
aS'/imatge/mtubau/projects/faces/Speech2Youtubers/youtubers_v2_test/soyunapringada/cropped_face_frame_23125.png'
p328
aS'/imatge/mtubau/projects/faces/Speech2Youtubers/youtubers_v2_test/soyunapringada/cropped_face_frame_7200.png'
p329
aS'/imatge/mtubau/projects/faces/Speech2Youtubers/youtubers_v2_test/soyunapringada/cropped_face_frame_22950.png'
p330
aS'/imatge/mtubau/projects/faces/Speech2Youtubers/youtubers_v2_test/soyunapringada/cropped_face_frame_25975.png'
p331
aS'/imatge/mtubau/projects/faces/Speech2Youtubers/youtubers_v2_test/soyunapringada/cropped_face_frame_25175.png'
p332
aS'/imatge/mtubau/projects/faces/Speech2Youtubers/youtubers_v2_test/soyunapringada/cropped_face_frame_6900.png'
p333
aS'/imatge/mtubau/projects/faces/Speech2Youtubers/youtubers_v2_test/soyunapringada/cropped_face_frame_25075.png'
p334
aS'/imatge/mtubau/projects/faces/Speech2Youtubers/youtubers_v2_test/ter/cropped_face_frame_5597.png'
p335
aS'/imatge/mtubau/projects/faces/Speech2Youtubers/youtubers_v2_test/ter/cropped_face_frame_4775.png'
p336
aS'/imatge/mtubau/projects/faces/Speech2Youtubers/youtubers_v2_test/ter/cropped_face_frame_2975.png'
p337
aS'/imatge/mtubau/projects/faces/Speech2Youtubers/youtubers_v2_test/ter/cropped_face_frame_9625.png'
p338
aS'/imatge/mtubau/projects/faces/Speech2Youtubers/youtubers_v2_test/ter/cropped_face_frame_8250.png'
p339
aS'/imatge/mtubau/projects/faces/Speech2Youtubers/youtubers_v2_test/ter/cropped_face_frame_11200.png'
p340
aS'/imatge/mtubau/projects/faces/Speech2Youtubers/youtubers_v2_test/ter/cropped_face_frame_7888.png'
p341
aS'/imatge/mtubau/projects/faces/Speech2Youtubers/youtubers_v2_test/ter/cropped_face_frame_3712.png'
p342
aS'/imatge/mtubau/projects/faces/Speech2Youtubers/youtubers_v2_test/ter/cropped_face_frame_8091.png'
p343
aS'/imatge/mtubau/projects/faces/Speech2Youtubers/youtubers_v2_test/ter/cropped_face_frame_9575.png'
p344
aS'/imatge/mtubau/projects/faces/Speech2Youtubers/youtubers_v2_test/ter/cropped_face_frame_10614.png'
p345
aS'/imatge/mtubau/projects/faces/Speech2Youtubers/youtubers_v2_test/ter/cropped_face_frame_9825.png'
p346
aS'/imatge/mtubau/projects/faces/Speech2Youtubers/youtubers_v2_test/ter/cropped_face_frame_6873.png'
p347
aS'/imatge/mtubau/projects/faces/Speech2Youtubers/youtubers_v2_test/ter/cropped_face_frame_7830.png'
p348
aS'/imatge/mtubau/projects/faces/Speech2Youtubers/youtubers_v2_test/ter/cropped_face_frame_3925.png'
p349
aS'/imatge/mtubau/projects/faces/Speech2Youtubers/youtubers_v2_test/ter/cropped_face_frame_5655.png'
p350
aS'/imatge/mtubau/projects/faces/Speech2Youtubers/youtubers_v2_test/ter/cropped_face_frame_1650.png'
p351
aS'/imatge/mtubau/projects/faces/Speech2Youtubers/youtubers_v2_test/ter/cropped_face_frame_11525.png'
p352
aS'/imatge/mtubau/projects/faces/Speech2Youtubers/youtubers_v2_test/ter/cropped_face_frame_3900.png'
p353
aS'/imatge/mtubau/projects/faces/Speech2Youtubers/youtubers_v2_test/ter/cropped_face_frame_11513.png'
p354
aS'/imatge/mtubau/projects/faces/Speech2Youtubers/youtubers_v2_test/ter/cropped_face_frame_1700.png'
p355
a.