(lp1
S'/imatge/mtubau/work/2Male_dataset_test/auronplay/cropped_face_frame_2697.png'
p2
aS'/imatge/mtubau/work/2Male_dataset_test/auronplay/cropped_face_frame_1508.png'
p3
aS'/imatge/mtubau/work/2Male_dataset_test/auronplay/cropped_face_frame_1015.png'
p4
aS'/imatge/mtubau/work/2Male_dataset_test/auronplay/cropped_face_frame_2639.png'
p5
aS'/imatge/mtubau/work/2Male_dataset_test/auronplay/cropped_face_frame_261.png'
p6
aS'/imatge/mtubau/work/2Male_dataset_test/auronplay/cropped_face_frame_1769.png'
p7
aS'/imatge/mtubau/work/2Male_dataset_test/auronplay/cropped_face_frame_2842.png'
p8
aS'/imatge/mtubau/work/2Male_dataset_test/auronplay/cropped_face_frame_1421.png'
p9
aS'/imatge/mtubau/work/2Male_dataset_test/auronplay/cropped_face_frame_1885.png'
p10
aS'/imatge/mtubau/work/2Male_dataset_test/auronplay/cropped_face_frame_1160.png'
p11
aS'/imatge/mtubau/work/2Male_dataset_test/auronplay/cropped_face_frame_2262.png'
p12
aS'/imatge/mtubau/work/2Male_dataset_test/auronplay/cropped_face_frame_841.png'
p13
aS'/imatge/mtubau/work/2Male_dataset_test/auronplay/cropped_face_frame_493.png'
p14
aS'/imatge/mtubau/work/2Male_dataset_test/auronplay/cropped_face_frame_2726.png'
p15
aS'/imatge/mtubau/work/2Male_dataset_test/auronplay/cropped_face_frame_1682.png'
p16
aS'/imatge/mtubau/work/2Male_dataset_test/auronplay/cropped_face_frame_1131.png'
p17
aS'/imatge/mtubau/work/2Male_dataset_test/auronplay/cropped_face_frame_1624.png'
p18
aS'/imatge/mtubau/work/2Male_dataset_test/auronplay/cropped_face_frame_2610.png'
p19
aS'/imatge/mtubau/work/2Male_dataset_test/auronplay/cropped_face_frame_1305.png'
p20
aS'/imatge/mtubau/work/2Male_dataset_test/auronplay/cropped_face_frame_2059.png'
p21
aS'/imatge/mtubau/work/2Male_dataset_test/auronplay/cropped_face_frame_2320.png'
p22
aS'/imatge/mtubau/work/2Male_dataset_test/auronplay/cropped_face_frame_1711.png'
p23
aS'/imatge/mtubau/work/2Male_dataset_test/auronplay/cropped_face_frame_1740.png'
p24
aS'/imatge/mtubau/work/2Male_dataset_test/auronplay/cropped_face_frame_319.png'
p25
aS'/imatge/mtubau/work/2Male_dataset_test/auronplay/cropped_face_frame_2668.png'
p26
aS'/imatge/mtubau/work/2Male_dataset_test/auronplay/cropped_face_frame_1189.png'
p27
aS'/imatge/mtubau/work/2Male_dataset_test/auronplay/cropped_face_frame_1044.png'
p28
aS'/imatge/mtubau/work/2Male_dataset_test/auronplay/cropped_face_frame_899.png'
p29
aS'/imatge/mtubau/work/2Male_dataset_test/auronplay/cropped_face_frame_1102.png'
p30
aS'/imatge/mtubau/work/2Male_dataset_test/auronplay/cropped_face_frame_1856.png'
p31
aS'/imatge/mtubau/work/2Male_dataset_test/auronplay/cropped_face_frame_2233.png'
p32
aS'/imatge/mtubau/work/2Male_dataset_test/auronplay/cropped_face_frame_2494.png'
p33
aS'/imatge/mtubau/work/2Male_dataset_test/auronplay/cropped_face_frame_1392.png'
p34
aS'/imatge/mtubau/work/2Male_dataset_test/auronplay/cropped_face_frame_957.png'
p35
aS'/imatge/mtubau/work/2Male_dataset_test/auronplay/cropped_face_frame_2117.png'
p36
aS'/imatge/mtubau/work/2Male_dataset_test/auronplay/cropped_face_frame_2349.png'
p37
aS'/imatge/mtubau/work/2Male_dataset_test/auronplay/cropped_face_frame_1334.png'
p38
aS'/imatge/mtubau/work/2Male_dataset_test/auronplay/cropped_face_frame_2378.png'
p39
aS'/imatge/mtubau/work/2Male_dataset_test/auronplay/cropped_face_frame_2175.png'
p40
aS'/imatge/mtubau/work/2Male_dataset_test/auronplay/cropped_face_frame_870.png'
p41
aS'/imatge/mtubau/work/2Male_dataset_test/auronplay/cropped_face_frame_2146.png'
p42
aS'/imatge/mtubau/work/2Male_dataset_test/auronplay/cropped_face_frame_2436.png'
p43
aS'/imatge/mtubau/work/2Male_dataset_test/auronplay/cropped_face_frame_2465.png'
p44
aS'/imatge/mtubau/work/2Male_dataset_test/auronplay/cropped_face_frame_1653.png'
p45
aS'/imatge/mtubau/work/2Male_dataset_test/auronplay/cropped_face_frame_2001.png'
p46
aS'/imatge/mtubau/work/2Male_dataset_test/luzuvlogs/cropped_face_frame_2392.png'
p47
aS'/imatge/mtubau/work/2Male_dataset_test/luzuvlogs/cropped_face_frame_1679.png'
p48
aS'/imatge/mtubau/work/2Male_dataset_test/luzuvlogs/cropped_face_frame_1932.png'
p49
aS'/imatge/mtubau/work/2Male_dataset_test/luzuvlogs/cropped_face_frame_1725.png'
p50
aS'/imatge/mtubau/work/2Male_dataset_test/luzuvlogs/cropped_face_frame_1978.png'
p51
aS'/imatge/mtubau/work/2Male_dataset_test/luzuvlogs/cropped_face_frame_1817.png'
p52
aS'/imatge/mtubau/work/2Male_dataset_test/luzuvlogs/cropped_face_frame_2162.png'
p53
aS'/imatge/mtubau/work/2Male_dataset_test/luzuvlogs/cropped_face_frame_2369.png'
p54
aS'/imatge/mtubau/work/2Male_dataset_test/luzuvlogs/cropped_face_frame_1380.png'
p55
aS'/imatge/mtubau/work/2Male_dataset_test/luzuvlogs/cropped_face_frame_2139.png'
p56
aS'/imatge/mtubau/work/2Male_dataset_test/luzuvlogs/cropped_face_frame_1357.png'
p57
aS'/imatge/mtubau/work/2Male_dataset_test/luzuvlogs/cropped_face_frame_1633.png'
p58
aS'/imatge/mtubau/work/2Male_dataset_test/luzuvlogs/cropped_face_frame_2323.png'
p59
aS'/imatge/mtubau/work/2Male_dataset_test/luzuvlogs/cropped_face_frame_1610.png'
p60
aS'/imatge/mtubau/work/2Male_dataset_test/luzuvlogs/cropped_face_frame_2070.png'
p61
aS'/imatge/mtubau/work/2Male_dataset_test/luzuvlogs/cropped_face_frame_2231.png'
p62
aS'/imatge/mtubau/work/2Male_dataset_test/luzuvlogs/cropped_face_frame_1794.png'
p63
aS'/imatge/mtubau/work/2Male_dataset_test/luzuvlogs/cropped_face_frame_1587.png'
p64
aS'/imatge/mtubau/work/2Male_dataset_test/luzuvlogs/cropped_face_frame_2461.png'
p65
aS'/imatge/mtubau/work/2Male_dataset_test/luzuvlogs/cropped_face_frame_2047.png'
p66
aS'/imatge/mtubau/work/2Male_dataset_test/luzuvlogs/cropped_face_frame_1909.png'
p67
aS'/imatge/mtubau/work/2Male_dataset_test/luzuvlogs/cropped_face_frame_1886.png'
p68
aS'/imatge/mtubau/work/2Male_dataset_test/luzuvlogs/cropped_face_frame_2024.png'
p69
aS'/imatge/mtubau/work/2Male_dataset_test/luzuvlogs/cropped_face_frame_2346.png'
p70
aS'/imatge/mtubau/work/2Male_dataset_test/luzuvlogs/cropped_face_frame_1518.png'
p71
aS'/imatge/mtubau/work/2Male_dataset_test/luzuvlogs/cropped_face_frame_1955.png'
p72
aS'/imatge/mtubau/work/2Male_dataset_test/luzuvlogs/cropped_face_frame_2438.png'
p73
aS'/imatge/mtubau/work/2Male_dataset_test/luzuvlogs/cropped_face_frame_1426.png'
p74
aS'/imatge/mtubau/work/2Male_dataset_test/luzuvlogs/cropped_face_frame_2300.png'
p75
aS'/imatge/mtubau/work/2Male_dataset_test/luzuvlogs/cropped_face_frame_2001.png'
p76
aS'/imatge/mtubau/work/2Male_dataset_test/luzuvlogs/cropped_face_frame_1863.png'
p77
aS'/imatge/mtubau/work/2Male_dataset_test/luzuvlogs/cropped_face_frame_1840.png'
p78
aS'/imatge/mtubau/work/2Male_dataset_test/luzuvlogs/cropped_face_frame_2093.png'
p79
aS'/imatge/mtubau/work/2Male_dataset_test/luzuvlogs/cropped_face_frame_1702.png'
p80
aS'/imatge/mtubau/work/2Male_dataset_test/luzuvlogs/cropped_face_frame_2116.png'
p81
aS'/imatge/mtubau/work/2Male_dataset_test/luzuvlogs/cropped_face_frame_1449.png'
p82
aS'/imatge/mtubau/work/2Male_dataset_test/luzuvlogs/cropped_face_frame_1541.png'
p83
aS'/imatge/mtubau/work/2Male_dataset_test/luzuvlogs/cropped_face_frame_2415.png'
p84
aS'/imatge/mtubau/work/2Male_dataset_test/luzuvlogs/cropped_face_frame_2208.png'
p85
aS'/imatge/mtubau/work/2Male_dataset_test/luzuvlogs/cropped_face_frame_2277.png'
p86
aS'/imatge/mtubau/work/2Male_dataset_test/luzuvlogs/cropped_face_frame_1771.png'
p87
a.